(dp0
S'../images/att_faces/s11/9.pgm'
p1
S'/Users/mfredrik/data/facematch/imgKd11VZ.png'
p2
sS'../images/att_faces/s26/4.pgm'
p3
S'/Users/mfredrik/data/facematch/imgmXzrbP.png'
p4
sS'../images/att_faces/s29/2.pgm'
p5
S'/Users/mfredrik/data/facematch/img7MQj12.png'
p6
sS'../images/att_faces/s11/10.pgm'
p7
S'/Users/mfredrik/data/facematch/imgvVj7Sj.png'
p8
sS'../images/att_faces/s1/2.pgm'
p9
S'/Users/mfredrik/data/facematch/imgKLTK7L.png'
p10
sS'../images/att_faces/s16/1.pgm'
p11
S'/Users/mfredrik/data/facematch/imgf0TKvz.png'
p12
sS'../images/att_faces/s25/10.pgm'
p13
S'/Users/mfredrik/data/facematch/imgDZyEnr.png'
p14
sS'../images/att_faces/s5/9.pgm'
p15
S'/Users/mfredrik/data/facematch/imgFPFV9M.png'
p16
sS'../images/att_faces/s31/6.pgm'
p17
S'/Users/mfredrik/data/facematch/imgMXWp9I.png'
p18
sS'../images/att_faces/s18/4.pgm'
p19
S'/Users/mfredrik/data/facematch/imgnRTGZ_.png'
p20
sS'../images/att_faces/s10/10.pgm'
p21
S'/Users/mfredrik/data/facematch/imgSuxr39.png'
p22
sS'../images/att_faces/s6/8.pgm'
p23
S'/Users/mfredrik/data/facematch/imgbXbZnz.png'
p24
sS'../images/att_faces/s2/5.pgm'
p25
S'/Users/mfredrik/data/facematch/imgyYWMtZ.png'
p26
sS'../images/att_faces/s10/4.pgm'
p27
S'/Users/mfredrik/data/facematch/imgfPBA2A.png'
p28
sS'../experiments/softmax-fullrun/softmax_att_faces_full.pkl_bb=false_s4/target_img.png'
p29
S'/Users/mfredrik/data/facematch/img7yqzfC.png'
p30
sS'../images/att_faces/s27/4.pgm'
p31
S'/Users/mfredrik/data/facematch/imgfBBLVK.png'
p32
sS'../images/att_faces/s15/10.pgm'
p33
S'/Users/mfredrik/data/facematch/imguL6SjW.png'
p34
sS'../images/att_faces/s4/7.pgm'
p35
S'/Users/mfredrik/data/facematch/img24_kNs.png'
p36
sS'../images/att_faces/s26/3.pgm'
p37
S'/Users/mfredrik/data/facematch/imgocR59A.png'
p38
sS'../images/att_faces/s9/4.pgm'
p39
S'/Users/mfredrik/data/facematch/img4iqIcS.png'
p40
sS'../images/att_faces/s34/10.pgm'
p41
S'/Users/mfredrik/data/facematch/imgxC7Gfh.png'
p42
sS'../images/att_faces/s28/4.pgm'
p43
S'/Users/mfredrik/data/facematch/imgUsW9Hv.png'
p44
sS'../experiments/softmax-fullrun/softmax_att_faces_half.pkl_bb=false_s16/target_img.png'
p45
S'/Users/mfredrik/data/facematch/imgU_Y4Sd.png'
p46
sS'../images/att_faces/s9/10.pgm'
p47
S'/Users/mfredrik/data/facematch/imgXcrO8z.png'
p48
sS'../images/att_faces/s20/6.pgm'
p49
S'/Users/mfredrik/data/facematch/imgNvEFIQ.png'
p50
sS'../images/att_faces/s6/10.pgm'
p51
S'/Users/mfredrik/data/facematch/imgdzgtxo.png'
p52
sS'../experiments/softmax-fullrun/softmax_att_faces_full.pkl_bb=false_s27/target_img.png'
p53
S'/Users/mfredrik/data/facematch/imgIw48F8.png'
p54
sS'../images/att_faces/s10/6.pgm'
p55
S'/Users/mfredrik/data/facematch/imgZ6MVoB.png'
p56
sS'../images/att_faces/s40/10.pgm'
p57
S'/Users/mfredrik/data/facematch/imgdCHQiO.png'
p58
sS'../images/att_faces/s3/9.pgm'
p59
S'/Users/mfredrik/data/facematch/imgVksQuS.png'
p60
sS'../images/att_faces/s37/2.pgm'
p61
S'/Users/mfredrik/data/facematch/imgvWnL1j.png'
p62
sS'../images/att_faces/s3/4.pgm'
p63
S'/Users/mfredrik/data/facematch/imgAyxx5k.png'
p64
sS'../experiments/softmax-fullrun/softmax_att_faces_half.pkl_bb=false_s1/target_img.png'
p65
S'/Users/mfredrik/data/facematch/imgx3f9O4.png'
p66
sS'../images/att_faces/s1/8.pgm'
p67
S'/Users/mfredrik/data/facematch/imgGeqW_r.png'
p68
sS'../images/att_faces/s29/3.pgm'
p69
S'/Users/mfredrik/data/facematch/imgBcTbfC.png'
p70
sS'../images/att_faces/s17/1.pgm'
p71
S'/Users/mfredrik/data/facematch/imglnnO5S.png'
p72
sS'../images/att_faces/s8/7.pgm'
p73
S'/Users/mfredrik/data/facematch/imgK1G5a8.png'
p74
sS'../images/att_faces/s11/2.pgm'
p75
S'/Users/mfredrik/data/facematch/imgxBQ6eN.png'
p76
sS'../experiments/softmax-fullrun/softmax_att_faces_half.pkl_bb=false_s3/target_img.png'
p77
S'/Users/mfredrik/data/facematch/imglQXASl.png'
p78
sS'../images/att_faces/s26/6.pgm'
p79
S'/Users/mfredrik/data/facematch/imgyh4NaQ.png'
p80
sS'../images/att_faces/s36/8.pgm'
p81
S'/Users/mfredrik/data/facematch/imgmU7Nu6.png'
p82
sS'../images/att_faces/s20/5.pgm'
p83
S'/Users/mfredrik/data/facematch/imgfSk6Vq.png'
p84
sS'../images/att_faces/s6/5.pgm'
p85
S'/Users/mfredrik/data/facematch/img06KgLG.png'
p86
sS'../experiments/softmax-fullrun/softmax_att_faces_full.pkl_bb=false_s26/target_img.png'
p87
S'/Users/mfredrik/data/facematch/imghIZHXx.png'
p88
sS'../experiments/softmax-fullrun/softmax_att_faces_full.pkl_bb=false_s9/target_img.png'
p89
S'/Users/mfredrik/data/facematch/imgDRON9Q.png'
p90
sS'../images/att_faces/s9/2.pgm'
p91
S'/Users/mfredrik/data/facematch/imgADEj3h.png'
p92
sS'../images/att_faces/s36/9.pgm'
p93
S'/Users/mfredrik/data/facematch/imgb3HNuk.png'
p94
sS'../images/att_faces/s23/9.pgm'
p95
S'/Users/mfredrik/data/facematch/imgx5Wemq.png'
p96
sS'../images/att_faces/s5/1.pgm'
p97
S'/Users/mfredrik/data/facematch/imgTyIEd6.png'
p98
sS'../experiments/softmax-fullrun/softmax_att_faces_full.pkl_bb=false_s25/target_img.png'
p99
S'/Users/mfredrik/data/facematch/imgmcV1uw.png'
p100
sS'../images/att_faces/s37/6.pgm'
p101
S'/Users/mfredrik/data/facematch/imgKH7cd2.png'
p102
sS'../images/att_faces/s5/8.pgm'
p103
S'/Users/mfredrik/data/facematch/img7mBMbR.png'
p104
sS'../images/att_faces/s21/1.pgm'
p105
S'/Users/mfredrik/data/facematch/imgtjrpjD.png'
p106
sS'../images/att_faces/s24/9.pgm'
p107
S'/Users/mfredrik/data/facematch/img6n6sA1.png'
p108
sS'../images/att_faces/s39/10.pgm'
p109
S'/Users/mfredrik/data/facematch/imggS1pSh.png'
p110
sS'../experiments/softmax-fullrun/softmax_att_faces_full.pkl_bb=false_s39/target_img.png'
p111
S'/Users/mfredrik/data/facematch/imgsJA5IV.png'
p112
s.