(dp0
S'../images/att_faces/s28/5.pgm'
p1
S'/Users/mfredrik/data/facematch/img_xnvl3.png'
p2
sS'../images/att_faces/s16/1.pgm'
p3
S'/Users/mfredrik/data/facematch/imgf0TKvz.png'
p4
sS'../experiments/iminvert-dae-p5000/whitebox/dae_mlp_att_faces_half.pkl_bb=false_s34/target_img.png'
p5
S'/Users/mfredrik/data/facematch/imgcUygZl.png'
p6
sS'../experiments/softmax-fullrun/whitebox/softmax_att_faces_full.pkl_bb=false_s38/final_image.png'
p7
S'/Users/mfredrik/data/facematch/img7HBO7n.png'
p8
sS'../experiments/iminvert-dae-p5000/whitebox/dae_mlp_att_faces_half.pkl_bb=false_s21/final_image.png'
p9
S'/Users/mfredrik/data/facematch/imgGW_YNT.png'
p10
sS'../images/att_faces/s11/8.pgm'
p11
S'/Users/mfredrik/data/facematch/imghE57qM.png'
p12
sS'../experiments/softmax-fullrun/softmax_att_faces_half.pkl_bb=false_s21/final_image.png'
p13
S'/Users/mfredrik/data/facematch/imgj7SD2K.png'
p14
sS'../images/att_faces/s9/2.pgm'
p15
S'/Users/mfredrik/data/facematch/imgADEj3h.png'
p16
sS'../images/att_faces/s3/2.pgm'
p17
S'/Users/mfredrik/data/facematch/imgPe21Ov.png'
p18
sS'../experiments/iminvert-dae-p5000/whitebox/dae_mlp_att_faces_half.pkl_bb=false_s23/final_image.png'
p19
S'/Users/mfredrik/data/facematch/imgf61PQQ.png'
p20
sS'../images/att_faces/s39/5.pgm'
p21
S'/Users/mfredrik/data/facematch/imgA7Qjz4.png'
p22
sS'../experiments/softmax-fullrun/whitebox/softmax_att_faces_full.pkl_bb=false_s36/target_img.png'
p23
S'/Users/mfredrik/data/facematch/imgWzDMYI.png'
p24
sS'../images/att_faces/s31/9.pgm'
p25
S'/Users/mfredrik/data/facematch/img5kVSEZ.png'
p26
sS'../experiments/softmax-fullrun/softmax_att_faces_full.pkl_bb=false_s19/final_image.png'
p27
S'/Users/mfredrik/data/facematch/imgCynrQ5.png'
p28
sS'../experiments/iminvert-dae-p5000/full/blackbox/dae_mlp_att_faces_full.pkl_bb=true_s31/final_image.png'
p29
S'/Users/mfredrik/data/facematch/imgcb3wwe.png'
p30
sS'../images/att_faces/s32/8.pgm'
p31
S'/Users/mfredrik/data/facematch/imgANR872.png'
p32
sS'../experiments/iminvert-dae-p5000/full/blackbox/dae_mlp_att_faces_full.pkl_bb=true_s23/final_image.png'
p33
S'/Users/mfredrik/data/facematch/img43jJYx.png'
p34
sS'../experiments/softmax-fullrun/softmax_att_faces_half.pkl_bb=false_s8/final_image.png'
p35
S'/Users/mfredrik/data/facematch/img_jIzwm.png'
p36
sS'../experiments/softmax-fullrun/whitebox/softmax_att_faces_full.pkl_bb=false_s32/final_image.png'
p37
S'/Users/mfredrik/data/facematch/imguAGsMI.png'
p38
sS'../experiments/iminvert-dae-p5000/full/whitebox/dae_mlp_att_faces_full.pkl_bb=false_s20/target_img.png'
p39
S'/Users/mfredrik/data/facematch/imgXmlYeG.png'
p40
sS'../images/att_faces/s2/6.pgm'
p41
S'/Users/mfredrik/data/facematch/imgIjaHuF.png'
p42
sS'../images/att_faces/s8/1.pgm'
p43
S'/Users/mfredrik/data/facematch/imgocMcod.png'
p44
sS'../images/att_faces/s8/7.pgm'
p45
S'/Users/mfredrik/data/facematch/imgK1G5a8.png'
p46
sS'../experiments/softmax-fullrun/softmax_att_faces_half.pkl_bb=false_s37/final_image.png'
p47
S'/Users/mfredrik/data/facematch/imgFKxxpu.png'
p48
sS'../experiments/iminvert-dae-p5000/full/whitebox/dae_mlp_att_faces_full.pkl_bb=false_s38/final_image.png'
p49
S'/Users/mfredrik/data/facematch/imgIpItef.png'
p50
sS'../images/att_faces/s31/2.pgm'
p51
S'/Users/mfredrik/data/facematch/imgKf6_C8.png'
p52
sS'../images/att_faces/s37/7.pgm'
p53
S'/Users/mfredrik/data/facematch/imgaGfuLh.png'
p54
sS'../experiments/softmax-fullrun/softmax_att_faces_half.pkl_bb=false_s11/final_image.png'
p55
S'/Users/mfredrik/data/facematch/imga7KiYi.png'
p56
sS'../images/att_faces/s8/3.pgm'
p57
S'/Users/mfredrik/data/facematch/imgd6qdbk.png'
p58
sS'../images/att_faces/s35/2.pgm'
p59
S'/Users/mfredrik/data/facematch/imgnRkSst.png'
p60
sS'../images/att_faces/s4/1.pgm'
p61
S'/Users/mfredrik/data/facematch/img1waz3Z.png'
p62
sS'../experiments/iminvert-dae-p5000/full/blackbox/dae_mlp_att_faces_full.pkl_bb=true_s19/final_image.png'
p63
S'/Users/mfredrik/data/facematch/img5zruuL.png'
p64
sS'../images/att_faces/s14/9.pgm'
p65
S'/Users/mfredrik/data/facematch/imgV69oec.png'
p66
sS'../experiments/iminvert-dae-p5000/whitebox/dae_mlp_att_faces_half.pkl_bb=false_s32/final_image.png'
p67
S'/Users/mfredrik/data/facematch/imgFdzsWT.png'
p68
sS'../experiments/iminvert-dae-p1000/whitebox/dae_mlp_att_faces_half.pkl_bb=false_s35/final_image.png'
p69
S'/Users/mfredrik/data/facematch/imgWjYu9n.png'
p70
sS'../experiments/iminvert-dae-p5000/full/whitebox/dae_mlp_att_faces_full.pkl_bb=false_s28/target_img.png'
p71
S'/Users/mfredrik/data/facematch/imgwh8Q_a.png'
p72
sS'../images/att_faces/s5/10.pgm'
p73
S'/Users/mfredrik/data/facematch/imgFufIQ3.png'
p74
sS'../images/att_faces/s30/3.pgm'
p75
S'/Users/mfredrik/data/facematch/img6Ow7Y9.png'
p76
sS'../experiments/softmax-fullrun/softmax_att_faces_half.pkl_bb=false_s1/final_image.png'
p77
S'/Users/mfredrik/data/facematch/imgTfCqDf.png'
p78
sS'../images/att_faces/s16/5.pgm'
p79
S'/Users/mfredrik/data/facematch/imgCQeFzi.png'
p80
sS'../images/att_faces/s36/6.pgm'
p81
S'/Users/mfredrik/data/facematch/imgAjutFl.png'
p82
sS'../experiments/iminvert-dae-p5000/full/blackbox/dae_mlp_att_faces_full.pkl_bb=true_s6/final_image.png'
p83
S'/Users/mfredrik/data/facematch/imgealfAz.png'
p84
sS'../experiments/iminvert-dae-p5000/whitebox/dae_mlp_att_faces_half.pkl_bb=false_s28/final_image.png'
p85
S'/Users/mfredrik/data/facematch/img4Y4qav.png'
p86
sS'../experiments/softmax-fullrun/softmax_att_faces_half.pkl_bb=false_s31/final_image.png'
p87
S'/Users/mfredrik/data/facematch/imgJJ6zir.png'
p88
sS'../experiments/iminvert-dae-p5000/whitebox/dae_mlp_att_faces_half.pkl_bb=false_s13/final_image.png'
p89
S'/Users/mfredrik/data/facematch/imgsy2_4w.png'
p90
sS'../images/att_faces/s21/2.pgm'
p91
S'/Users/mfredrik/data/facematch/imgI1e3MQ.png'
p92
sS'../experiments/softmax-fullrun/whitebox/softmax_att_faces_full.pkl_bb=false_s4/final_image.png'
p93
S'/Users/mfredrik/data/facematch/img4KUE5Y.png'
p94
sS'../images/att_faces/s6/2.pgm'
p95
S'/Users/mfredrik/data/facematch/imgKQ0aAq.png'
p96
sS'../experiments/iminvert-dae-p5000/full/blackbox/dae_mlp_att_faces_full.pkl_bb=true_s29/final_image.png'
p97
S'/Users/mfredrik/data/facematch/imgt7EdHw.png'
p98
sS'../experiments/iminvert-dae-p5000/full/whitebox/dae_mlp_att_faces_full.pkl_bb=false_s23/final_image.png'
p99
S'/Users/mfredrik/data/facematch/imgOBXITh.png'
p100
sS'../experiments/iminvert-dae-p5000/full/whitebox/dae_mlp_att_faces_full.pkl_bb=false_s18/final_image.png'
p101
S'/Users/mfredrik/data/facematch/imgT74qeB.png'
p102
sS'../experiments/iminvert-dae-p1000/whitebox/dae_mlp_att_faces_half.pkl_bb=false_s23/final_image.png'
p103
S'/Users/mfredrik/data/facematch/imgRhnsZ1.png'
p104
sS'../images/att_faces/s30/5.pgm'
p105
S'/Users/mfredrik/data/facematch/imgQ2TqO5.png'
p106
sS'../images/att_faces/s11/4.pgm'
p107
S'/Users/mfredrik/data/facematch/imgY4srj_.png'
p108
sS'../experiments/iminvert-dae-p5000/full/blackbox/dae_mlp_att_faces_full.pkl_bb=true_s25/final_image.png'
p109
S'/Users/mfredrik/data/facematch/imgvHMzmU.png'
p110
sS'../images/att_faces/s24/9.pgm'
p111
S'/Users/mfredrik/data/facematch/img6n6sA1.png'
p112
sS'../images/att_faces/s25/6.pgm'
p113
S'/Users/mfredrik/data/facematch/imgVS2sgy.png'
p114
sS'../images/att_faces/s37/4.pgm'
p115
S'/Users/mfredrik/data/facematch/imgs_5pkv.png'
p116
sS'../images/att_faces/s29/10.pgm'
p117
S'/Users/mfredrik/data/facematch/imgWMcO3I.png'
p118
sS'../images/att_faces/s7/10.pgm'
p119
S'/Users/mfredrik/data/facematch/imgUqJTcE.png'
p120
sS'../experiments/softmax-fullrun/softmax_att_faces_full.pkl_bb=false_s25/final_image.png'
p121
S'/Users/mfredrik/data/facematch/imgPPNebt.png'
p122
sS'../images/att_faces/s11/2.pgm'
p123
S'/Users/mfredrik/data/facematch/imgxBQ6eN.png'
p124
sS'../images/att_faces/s25/1.pgm'
p125
S'/Users/mfredrik/data/facematch/img2gE443.png'
p126
sS'../experiments/iminvert-dae-p5000/whitebox/dae_mlp_att_faces_half.pkl_bb=false_s12/final_image.png'
p127
S'/Users/mfredrik/data/facematch/imgsMNi6K.png'
p128
sS'../experiments/iminvert-dae-p5000/full/blackbox/dae_mlp_att_faces_full.pkl_bb=true_s34/target_img.png'
p129
S'/Users/mfredrik/data/facematch/imgf5av9z.png'
p130
sS'../experiments/iminvert-dae-p1000/whitebox/dae_mlp_att_faces_half.pkl_bb=false_s26/target_img.png'
p131
S'/Users/mfredrik/data/facematch/imgm3UIT9.png'
p132
sS'../images/att_faces/s11/1.pgm'
p133
S'/Users/mfredrik/data/facematch/imgtUYqma.png'
p134
sS'../images/att_faces/s18/8.pgm'
p135
S'/Users/mfredrik/data/facematch/img_raMEl.png'
p136
sS'../experiments/iminvert-dae-p5000/full/blackbox/dae_mlp_att_faces_full.pkl_bb=true_s37/final_image.png'
p137
S'/Users/mfredrik/data/facematch/imgwvAYs7.png'
p138
sS'../images/att_faces/s16/10.pgm'
p139
S'/Users/mfredrik/data/facematch/imgzNQgoW.png'
p140
sS'../images/att_faces/s40/6.pgm'
p141
S'/Users/mfredrik/data/facematch/imgmxnqFP.png'
p142
sS'../images/att_faces/s15/5.pgm'
p143
S'/Users/mfredrik/data/facematch/imgONBXD0.png'
p144
sS'../experiments/iminvert-dae-p5000/whitebox/dae_mlp_att_faces_half.pkl_bb=false_s14/final_image.png'
p145
S'/Users/mfredrik/data/facematch/imgyOUM61.png'
p146
sS'../images/att_faces/s13/8.pgm'
p147
S'/Users/mfredrik/data/facematch/imgisVx_S.png'
p148
sS'../experiments/softmax-fullrun/softmax_att_faces_full.pkl_bb=false_s39/final_image.png'
p149
S'/Users/mfredrik/data/facematch/imgYXNH0D.png'
p150
sS'../images/att_faces/s14/8.pgm'
p151
S'/Users/mfredrik/data/facematch/imgU9QUMo.png'
p152
sS'../experiments/iminvert-dae-p5000/full/whitebox/dae_mlp_att_faces_full.pkl_bb=false_s3/final_image.png'
p153
S'/Users/mfredrik/data/facematch/img3C4dDX.png'
p154
sS'../images/att_faces/s12/5.pgm'
p155
S'/Users/mfredrik/data/facematch/imgjPlUTQ.png'
p156
sS'../experiments/iminvert-dae-p5000/full/whitebox/dae_mlp_att_faces_full.pkl_bb=false_s31/target_img.png'
p157
S'/Users/mfredrik/data/facematch/img9dedJ2.png'
p158
sS'../images/att_faces/s35/8.pgm'
p159
S'/Users/mfredrik/data/facematch/imgIdKRTH.png'
p160
sS'../images/att_faces/s15/1.pgm'
p161
S'/Users/mfredrik/data/facematch/imgYhlaQg.png'
p162
sS'../experiments/iminvert-dae-p5000/whitebox/dae_mlp_att_faces_half.pkl_bb=false_s10/final_image.png'
p163
S'/Users/mfredrik/data/facematch/imgqOONiQ.png'
p164
sS'../images/att_faces/s10/10.pgm'
p165
S'/Users/mfredrik/data/facematch/imgSuxr39.png'
p166
sS'../experiments/iminvert-dae-p5000/whitebox/dae_mlp_att_faces_half.pkl_bb=false_s25/final_image.png'
p167
S'/Users/mfredrik/data/facematch/imgXrOVhf.png'
p168
sS'../experiments/iminvert-dae-p1000/whitebox/dae_mlp_att_faces_half.pkl_bb=false_s37/final_image.png'
p169
S'/Users/mfredrik/data/facematch/imgVA0XZD.png'
p170
sS'../images/att_faces/s15/8.pgm'
p171
S'/Users/mfredrik/data/facematch/imgfBK1mR.png'
p172
sS'../images/att_faces/s36/4.pgm'
p173
S'/Users/mfredrik/data/facematch/imgdWwmre.png'
p174
sS'../images/att_faces/s15/10.pgm'
p175
S'/Users/mfredrik/data/facematch/imguL6SjW.png'
p176
sS'../images/att_faces/s11/6.pgm'
p177
S'/Users/mfredrik/data/facematch/imgFhlVad.png'
p178
sS'../experiments/iminvert-dae-p5000/full/blackbox/dae_mlp_att_faces_full.pkl_bb=true_s39/final_image.png'
p179
S'/Users/mfredrik/data/facematch/imgtbNFxU.png'
p180
sS'../experiments/softmax-fullrun/softmax_att_faces_half.pkl_bb=false_s6/final_image.png'
p181
S'/Users/mfredrik/data/facematch/imgj0mJ4O.png'
p182
sS'../experiments/iminvert-dae-p5000/full/whitebox/dae_mlp_att_faces_full.pkl_bb=false_s28/final_image.png'
p183
S'/Users/mfredrik/data/facematch/imgNwph9n.png'
p184
sS'../experiments/softmax-fullrun/softmax_att_faces_half.pkl_bb=false_s11/target_img.png'
p185
S'/Users/mfredrik/data/facematch/imgVvRfom.png'
p186
sS'../images/att_faces/s21/10.pgm'
p187
S'/Users/mfredrik/data/facematch/imgJadw7w.png'
p188
sS'../images/att_faces/s3/7.pgm'
p189
S'/Users/mfredrik/data/facematch/imgHDPqkk.png'
p190
sS'../images/att_faces/s19/8.pgm'
p191
S'/Users/mfredrik/data/facematch/imgQyGjIk.png'
p192
sS'../images/att_faces/s29/6.pgm'
p193
S'/Users/mfredrik/data/facematch/imgKhhA6x.png'
p194
sS'../experiments/iminvert-dae-p1000/whitebox/dae_mlp_att_faces_half.pkl_bb=false_s32/final_image.png'
p195
S'/Users/mfredrik/data/facematch/imgoRNZDU.png'
p196
sS'../experiments/iminvert-dae-p5000/full/whitebox/dae_mlp_att_faces_full.pkl_bb=false_s9/target_img.png'
p197
S'/Users/mfredrik/data/facematch/imgC6zpk4.png'
p198
sS'../images/att_faces/s16/2.pgm'
p199
S'/Users/mfredrik/data/facematch/imgl5XQpW.png'
p200
sS'../experiments/iminvert-dae-p5000/full/blackbox/dae_mlp_att_faces_full.pkl_bb=true_s13/final_image.png'
p201
S'/Users/mfredrik/data/facematch/imgW45wFG.png'
p202
sS'../images/att_faces/s17/10.pgm'
p203
S'/Users/mfredrik/data/facematch/imgEFjstD.png'
p204
sS'../images/att_faces/s12/1.pgm'
p205
S'/Users/mfredrik/data/facematch/imgXDMNFu.png'
p206
sS'../experiments/softmax-fullrun/softmax_att_faces_half.pkl_bb=false_s22/final_image.png'
p207
S'/Users/mfredrik/data/facematch/img74dUXu.png'
p208
sS'../experiments/softmax-fullrun/softmax_att_faces_full.pkl_bb=false_s18/final_image.png'
p209
S'/Users/mfredrik/data/facematch/imgAlBUIh.png'
p210
sS'../experiments/iminvert-dae-p5000/full/blackbox/dae_mlp_att_faces_full.pkl_bb=true_s3/final_image.png'
p211
S'/Users/mfredrik/data/facematch/imgRdmir2.png'
p212
sS'../experiments/softmax-fullrun/softmax_att_faces_full.pkl_bb=false_s27/final_image.png'
p213
S'/Users/mfredrik/data/facematch/img7XzaVV.png'
p214
sS'../experiments/iminvert-dae-p5000/whitebox/dae_mlp_att_faces_half.pkl_bb=false_s26/target_img.png'
p215
S'/Users/mfredrik/data/facematch/imgcjjE6Y.png'
p216
sS'../images/att_faces/s32/5.pgm'
p217
S'/Users/mfredrik/data/facematch/imgXl5sty.png'
p218
sS'../images/att_faces/s38/8.pgm'
p219
S'/Users/mfredrik/data/facematch/img25cUDA.png'
p220
sS'../experiments/iminvert-dae-p5000/full/blackbox/dae_mlp_att_faces_full.pkl_bb=true_s26/target_img.png'
p221
S'/Users/mfredrik/data/facematch/imgymntyk.png'
p222
sS'../images/att_faces/s36/3.pgm'
p223
S'/Users/mfredrik/data/facematch/imgNUlRet.png'
p224
sS'../experiments/softmax-fullrun/softmax_att_faces_full.pkl_bb=false_s9/final_image.png'
p225
S'/Users/mfredrik/data/facematch/imgMA6HYa.png'
p226
sS'../images/att_faces/s1/3.pgm'
p227
S'/Users/mfredrik/data/facematch/imgwVqSA0.png'
p228
sS'../images/att_faces/s22/4.pgm'
p229
S'/Users/mfredrik/data/facematch/imgpvnyJx.png'
p230
sS'../images/att_faces/s10/2.pgm'
p231
S'/Users/mfredrik/data/facematch/imgKSCGtC.png'
p232
sS'../images/att_faces/s14/10.pgm'
p233
S'/Users/mfredrik/data/facematch/imgQYJC8v.png'
p234
sS'../images/att_faces/s26/5.pgm'
p235
S'/Users/mfredrik/data/facematch/img98ZV9D.png'
p236
sS'../experiments/iminvert-dae-p1000/whitebox/dae_mlp_att_faces_half.pkl_bb=false_s28/final_image.png'
p237
S'/Users/mfredrik/data/facematch/imgJ7iqCh.png'
p238
sS'../images/att_faces/s21/8.pgm'
p239
S'/Users/mfredrik/data/facematch/imgppQ6bT.png'
p240
sS'../experiments/softmax-fullrun/whitebox/softmax_att_faces_full.pkl_bb=false_s7/final_image.png'
p241
S'/Users/mfredrik/data/facematch/imghc3VDp.png'
p242
sS'../images/att_faces/s21/5.pgm'
p243
S'/Users/mfredrik/data/facematch/img8wag5k.png'
p244
sS'../images/att_faces/s39/8.pgm'
p245
S'/Users/mfredrik/data/facematch/img7xfR7v.png'
p246
sS'../images/att_faces/s33/3.pgm'
p247
S'/Users/mfredrik/data/facematch/img33mcx_.png'
p248
sS'../experiments/softmax-fullrun/softmax_att_faces_full.pkl_bb=false_s15/final_image.png'
p249
S'/Users/mfredrik/data/facematch/imgqTLQac.png'
p250
sS'../images/att_faces/s11/7.pgm'
p251
S'/Users/mfredrik/data/facematch/imgf0OKnS.png'
p252
sS'../images/att_faces/s20/1.pgm'
p253
S'/Users/mfredrik/data/facematch/imgJ6cEZB.png'
p254
sS'../experiments/softmax-fullrun/softmax_att_faces_full.pkl_bb=false_s18/target_img.png'
p255
S'/Users/mfredrik/data/facematch/imgqR50Tv.png'
p256
sS'../images/att_faces/s24/7.pgm'
p257
S'/Users/mfredrik/data/facematch/imglaPCJF.png'
p258
sS'../images/att_faces/s4/9.pgm'
p259
S'/Users/mfredrik/data/facematch/imgDDDute.png'
p260
sS'../experiments/iminvert-dae-p5000/whitebox/dae_mlp_att_faces_half.pkl_bb=false_s31/final_image.png'
p261
S'/Users/mfredrik/data/facematch/imgxSO3F4.png'
p262
sS'../experiments/iminvert-dae-p5000/full/blackbox/dae_mlp_att_faces_full.pkl_bb=true_s32/final_image.png'
p263
S'/Users/mfredrik/data/facematch/imgVCTyBp.png'
p264
sS'../images/att_faces/s8/2.pgm'
p265
S'/Users/mfredrik/data/facematch/imgUTF1G4.png'
p266
sS'../experiments/softmax-fullrun/whitebox/softmax_att_faces_full.pkl_bb=false_s28/final_image.png'
p267
S'/Users/mfredrik/data/facematch/imgoKmJx5.png'
p268
sS'../experiments/softmax-fullrun/softmax_att_faces_half.pkl_bb=false_s18/final_image.png'
p269
S'/Users/mfredrik/data/facematch/imgrb9sg2.png'
p270
sS'../images/att_faces/s40/9.pgm'
p271
S'/Users/mfredrik/data/facematch/imgK4L4Ry.png'
p272
sS'../images/att_faces/s18/6.pgm'
p273
S'/Users/mfredrik/data/facematch/imgHLTNhV.png'
p274
sS'../images/att_faces/s11/5.pgm'
p275
S'/Users/mfredrik/data/facematch/img378_WE.png'
p276
sS'../images/att_faces/s6/10.pgm'
p277
S'/Users/mfredrik/data/facematch/imgdzgtxo.png'
p278
sS'../experiments/softmax-fullrun/whitebox/softmax_att_faces_full.pkl_bb=false_s10/target_img.png'
p279
S'/Users/mfredrik/data/facematch/imgua6yDP.png'
p280
sS'../images/att_faces/s30/10.pgm'
p281
S'/Users/mfredrik/data/facematch/imgxrRKiP.png'
p282
sS'../images/att_faces/s34/3.pgm'
p283
S'/Users/mfredrik/data/facematch/imgVUHnxE.png'
p284
sS'../images/att_faces/s37/2.pgm'
p285
S'/Users/mfredrik/data/facematch/imgvWnL1j.png'
p286
sS'../experiments/softmax-fullrun/whitebox/softmax_att_faces_full.pkl_bb=false_s37/final_image.png'
p287
S'/Users/mfredrik/data/facematch/imgY8W6H1.png'
p288
sS'../experiments/softmax-fullrun/whitebox/softmax_att_faces_full.pkl_bb=false_s18/target_img.png'
p289
S'/Users/mfredrik/data/facematch/imguPSLx6.png'
p290
sS'../images/att_faces/s33/8.pgm'
p291
S'/Users/mfredrik/data/facematch/img87tb_H.png'
p292
sS'../images/att_faces/s35/7.pgm'
p293
S'/Users/mfredrik/data/facematch/imgpFyoX9.png'
p294
sS'../experiments/iminvert-dae-p1000/whitebox/dae_mlp_att_faces_half.pkl_bb=false_s19/final_image.png'
p295
S'/Users/mfredrik/data/facematch/imgJjKGSa.png'
p296
sS'../images/att_faces/s13/10.pgm'
p297
S'/Users/mfredrik/data/facematch/img0JGZYS.png'
p298
sS'../experiments/iminvert-dae-p5000/whitebox/dae_mlp_att_faces_half.pkl_bb=false_s27/final_image.png'
p299
S'/Users/mfredrik/data/facematch/imgeIQikW.png'
p300
sS'../images/att_faces/s23/4.pgm'
p301
S'/Users/mfredrik/data/facematch/imgx5mmLT.png'
p302
sS'../images/att_faces/s23/2.pgm'
p303
S'/Users/mfredrik/data/facematch/imgbcyxO5.png'
p304
sS'../experiments/softmax-fullrun/softmax_att_faces_full.pkl_bb=false_s39/target_img.png'
p305
S'/Users/mfredrik/data/facematch/imgsJA5IV.png'
p306
sS'../images/att_faces/s21/7.pgm'
p307
S'/Users/mfredrik/data/facematch/imgxv2hc0.png'
p308
sS'../experiments/softmax-fullrun/softmax_att_faces_half.pkl_bb=false_s25/final_image.png'
p309
S'/Users/mfredrik/data/facematch/img3PIl_x.png'
p310
sS'../experiments/iminvert-dae-p5000/whitebox/dae_mlp_att_faces_half.pkl_bb=false_s15/final_image.png'
p311
S'/Users/mfredrik/data/facematch/img1bNaBb.png'
p312
sS'../images/att_faces/s3/10.pgm'
p313
S'/Users/mfredrik/data/facematch/img92xLV0.png'
p314
sS'../images/att_faces/s13/7.pgm'
p315
S'/Users/mfredrik/data/facematch/img1V7OAW.png'
p316
sS'../images/att_faces/s35/1.pgm'
p317
S'/Users/mfredrik/data/facematch/imgecZgjE.png'
p318
sS'../images/att_faces/s15/3.pgm'
p319
S'/Users/mfredrik/data/facematch/imgTqlKLu.png'
p320
sS'../images/att_faces/s23/6.pgm'
p321
S'/Users/mfredrik/data/facematch/imgcoqAj1.png'
p322
sS'../images/att_faces/s39/7.pgm'
p323
S'/Users/mfredrik/data/facematch/img4G6TxO.png'
p324
sS'../experiments/softmax-fullrun/whitebox/softmax_att_faces_full.pkl_bb=false_s36/final_image.png'
p325
S'/Users/mfredrik/data/facematch/imgTXc1Wj.png'
p326
sS'../images/att_faces/s39/3.pgm'
p327
S'/Users/mfredrik/data/facematch/imgZap70f.png'
p328
sS'../experiments/iminvert-dae-p5000/full/blackbox/dae_mlp_att_faces_full.pkl_bb=true_s28/target_img.png'
p329
S'/Users/mfredrik/data/facematch/img5z9sXr.png'
p330
sS'../experiments/softmax-fullrun/softmax_att_faces_full.pkl_bb=false_s36/final_image.png'
p331
S'/Users/mfredrik/data/facematch/imgNSE62M.png'
p332
sS'../experiments/softmax-fullrun/softmax_att_faces_full.pkl_bb=false_s17/final_image.png'
p333
S'/Users/mfredrik/data/facematch/imguX1RJx.png'
p334
sS'../experiments/softmax-fullrun/softmax_att_faces_half.pkl_bb=false_s34/final_image.png'
p335
S'/Users/mfredrik/data/facematch/imgxakcOC.png'
p336
sS'../images/att_faces/s1/10.pgm'
p337
S'/Users/mfredrik/data/facematch/imgXsFaLD.png'
p338
sS'../images/att_faces/s1/9.pgm'
p339
S'/Users/mfredrik/data/facematch/img_MNrr6.png'
p340
sS'../images/att_faces/s12/3.pgm'
p341
S'/Users/mfredrik/data/facematch/imgRCMIIs.png'
p342
sS'../images/att_faces/s33/1.pgm'
p343
S'/Users/mfredrik/data/facematch/imgf6FvH3.png'
p344
sS'../experiments/iminvert-dae-p5000/whitebox/dae_mlp_att_faces_half.pkl_bb=false_s9/target_img.png'
p345
S'/Users/mfredrik/data/facematch/img1e9Rx8.png'
p346
sS'../images/att_faces/s34/10.pgm'
p347
S'/Users/mfredrik/data/facematch/imgxC7Gfh.png'
p348
sS'../experiments/iminvert-dae-p5000/full/whitebox/dae_mlp_att_faces_full.pkl_bb=false_s16/target_img.png'
p349
S'/Users/mfredrik/data/facematch/imgrvA3Vd.png'
p350
sS'../images/att_faces/s1/2.pgm'
p351
S'/Users/mfredrik/data/facematch/imgKLTK7L.png'
p352
sS'../images/att_faces/s7/9.pgm'
p353
S'/Users/mfredrik/data/facematch/imgaSXZOl.png'
p354
sS'../experiments/softmax-fullrun/softmax_att_faces_half.pkl_bb=false_s16/target_img.png'
p355
S'/Users/mfredrik/data/facematch/imgU_Y4Sd.png'
p356
sS'../images/att_faces/s38/2.pgm'
p357
S'/Users/mfredrik/data/facematch/imgCC1k_D.png'
p358
sS'../images/att_faces/s35/6.pgm'
p359
S'/Users/mfredrik/data/facematch/imgljZvqC.png'
p360
sS'../experiments/iminvert-dae-p5000/full/whitebox/dae_mlp_att_faces_full.pkl_bb=false_s25/final_image.png'
p361
S'/Users/mfredrik/data/facematch/imgIpiOje.png'
p362
sS'../images/att_faces/s31/4.pgm'
p363
S'/Users/mfredrik/data/facematch/imgU39LRp.png'
p364
sS'../experiments/iminvert-dae-p1000/whitebox/dae_mlp_att_faces_half.pkl_bb=false_s8/final_image.png'
p365
S'/Users/mfredrik/data/facematch/imgBr0_LV.png'
p366
sS'../images/att_faces/s12/6.pgm'
p367
S'/Users/mfredrik/data/facematch/img3u4xdg.png'
p368
sS'../images/att_faces/s30/2.pgm'
p369
S'/Users/mfredrik/data/facematch/imggC_XL1.png'
p370
sS'../images/att_faces/s6/6.pgm'
p371
S'/Users/mfredrik/data/facematch/imgEYP88P.png'
p372
sS'../experiments/iminvert-dae-p5000/whitebox/dae_mlp_att_faces_half.pkl_bb=false_s17/final_image.png'
p373
S'/Users/mfredrik/data/facematch/imgIZ4Flt.png'
p374
sS'../experiments/softmax-fullrun/whitebox/softmax_att_faces_full.pkl_bb=false_s18/final_image.png'
p375
S'/Users/mfredrik/data/facematch/imgBhhwgL.png'
p376
sS'../images/att_faces/s6/5.pgm'
p377
S'/Users/mfredrik/data/facematch/img06KgLG.png'
p378
sS'../experiments/iminvert-dae-p5000/full/blackbox/dae_mlp_att_faces_full.pkl_bb=true_s33/final_image.png'
p379
S'/Users/mfredrik/data/facematch/img8wrSIM.png'
p380
sS'../images/att_faces/s8/10.pgm'
p381
S'/Users/mfredrik/data/facematch/imgIQMWBz.png'
p382
sS'../images/att_faces/s33/6.pgm'
p383
S'/Users/mfredrik/data/facematch/imgxy7VZz.png'
p384
sS'../experiments/softmax-fullrun/softmax_att_faces_half.pkl_bb=false_s24/final_image.png'
p385
S'/Users/mfredrik/data/facematch/imgszj8Jf.png'
p386
sS'../experiments/iminvert-dae-p5000/full/whitebox/dae_mlp_att_faces_full.pkl_bb=false_s18/target_img.png'
p387
S'/Users/mfredrik/data/facematch/imghj4fOt.png'
p388
sS'../images/att_faces/s2/3.pgm'
p389
S'/Users/mfredrik/data/facematch/imgdEEAai.png'
p390
sS'../images/att_faces/s28/10.pgm'
p391
S'/Users/mfredrik/data/facematch/imgoqmYLm.png'
p392
sS'../images/att_faces/s20/3.pgm'
p393
S'/Users/mfredrik/data/facematch/imgQwZhqV.png'
p394
sS'../images/att_faces/s3/1.pgm'
p395
S'/Users/mfredrik/data/facematch/imgh2XDHi.png'
p396
sS'../images/att_faces/s25/2.pgm'
p397
S'/Users/mfredrik/data/facematch/img00qD2_.png'
p398
sS'../experiments/softmax-fullrun/whitebox/softmax_att_faces_full.pkl_bb=false_s34/final_image.png'
p399
S'/Users/mfredrik/data/facematch/imgBu1w6m.png'
p400
sS'../experiments/softmax-fullrun/softmax_att_faces_full.pkl_bb=false_s8/final_image.png'
p401
S'/Users/mfredrik/data/facematch/imgZPKXNJ.png'
p402
sS'../images/att_faces/s39/4.pgm'
p403
S'/Users/mfredrik/data/facematch/img4dRfOs.png'
p404
sS'../experiments/softmax-fullrun/whitebox/softmax_att_faces_full.pkl_bb=false_s21/final_image.png'
p405
S'/Users/mfredrik/data/facematch/imgRMwb_B.png'
p406
sS'../images/att_faces/s18/10.pgm'
p407
S'/Users/mfredrik/data/facematch/imgaufJyM.png'
p408
sS'../images/att_faces/s5/9.pgm'
p409
S'/Users/mfredrik/data/facematch/imgFPFV9M.png'
p410
sS'../images/att_faces/s18/1.pgm'
p411
S'/Users/mfredrik/data/facematch/imgWJSDnI.png'
p412
sS'../images/att_faces/s29/5.pgm'
p413
S'/Users/mfredrik/data/facematch/imgIAdu78.png'
p414
sS'../images/att_faces/s34/5.pgm'
p415
S'/Users/mfredrik/data/facematch/imgQEVZSH.png'
p416
sS'../images/att_faces/s7/1.pgm'
p417
S'/Users/mfredrik/data/facematch/imgRctTHB.png'
p418
sS'../experiments/softmax-fullrun/softmax_att_faces_half.pkl_bb=false_s23/final_image.png'
p419
S'/Users/mfredrik/data/facematch/imgVCy6uv.png'
p420
sS'../images/att_faces/s33/10.pgm'
p421
S'/Users/mfredrik/data/facematch/img0vb0vH.png'
p422
sS'../images/att_faces/s27/4.pgm'
p423
S'/Users/mfredrik/data/facematch/imgfBBLVK.png'
p424
sS'../experiments/iminvert-dae-p5000/full/blackbox/dae_mlp_att_faces_full.pkl_bb=true_s31/target_img.png'
p425
S'/Users/mfredrik/data/facematch/img_VaE0g.png'
p426
sS'../images/att_faces/s10/1.pgm'
p427
S'/Users/mfredrik/data/facematch/imgWyc6nj.png'
p428
sS'../images/att_faces/s9/10.pgm'
p429
S'/Users/mfredrik/data/facematch/imgXcrO8z.png'
p430
sS'../experiments/softmax-fullrun/whitebox/softmax_att_faces_full.pkl_bb=false_s1/final_image.png'
p431
S'/Users/mfredrik/data/facematch/imgI9pjEZ.png'
p432
sS'../experiments/softmax-fullrun/whitebox/softmax_att_faces_full.pkl_bb=false_s27/final_image.png'
p433
S'/Users/mfredrik/data/facematch/imgnvJmaY.png'
p434
sS'../experiments/softmax-fullrun/whitebox/softmax_att_faces_full.pkl_bb=false_s2/target_img.png'
p435
S'/Users/mfredrik/data/facematch/imgtwHU_r.png'
p436
sS'../images/att_faces/s16/8.pgm'
p437
S'/Users/mfredrik/data/facematch/imggpIByx.png'
p438
sS'../images/att_faces/s35/9.pgm'
p439
S'/Users/mfredrik/data/facematch/imgjLCRn_.png'
p440
sS'../images/att_faces/s8/4.pgm'
p441
S'/Users/mfredrik/data/facematch/imgxQ32aj.png'
p442
sS'../images/att_faces/s5/8.pgm'
p443
S'/Users/mfredrik/data/facematch/img7mBMbR.png'
p444
sS'../images/att_faces/s28/2.pgm'
p445
S'/Users/mfredrik/data/facematch/imgjaHBWi.png'
p446
sS'../images/att_faces/s30/9.pgm'
p447
S'/Users/mfredrik/data/facematch/imgQKE_d5.png'
p448
sS'../images/att_faces/s13/2.pgm'
p449
S'/Users/mfredrik/data/facematch/imgyhwdSs.png'
p450
sS'../images/att_faces/s40/5.pgm'
p451
S'/Users/mfredrik/data/facematch/img34KL27.png'
p452
sS'../experiments/iminvert-dae-p5000/whitebox/dae_mlp_att_faces_half.pkl_bb=false_s29/final_image.png'
p453
S'/Users/mfredrik/data/facematch/imgPxEXgR.png'
p454
sS'../experiments/softmax-fullrun/softmax_att_faces_half.pkl_bb=false_s30/final_image.png'
p455
S'/Users/mfredrik/data/facematch/imgcFUMiw.png'
p456
sS'../experiments/softmax-fullrun/whitebox/softmax_att_faces_full.pkl_bb=false_s22/target_img.png'
p457
S'/Users/mfredrik/data/facematch/imgAZTkbB.png'
p458
sS'../experiments/iminvert-dae-p5000/full/whitebox/dae_mlp_att_faces_full.pkl_bb=false_s1/target_img.png'
p459
S'/Users/mfredrik/data/facematch/imgtmLdKS.png'
p460
sS'../images/att_faces/s26/10.pgm'
p461
S'/Users/mfredrik/data/facematch/imgsjoZju.png'
p462
sS'../images/att_faces/s35/5.pgm'
p463
S'/Users/mfredrik/data/facematch/imgvGcbZE.png'
p464
sS'../images/att_faces/s9/4.pgm'
p465
S'/Users/mfredrik/data/facematch/img4iqIcS.png'
p466
sS'../experiments/iminvert-dae-p5000/full/whitebox/dae_mlp_att_faces_full.pkl_bb=false_s22/final_image.png'
p467
S'/Users/mfredrik/data/facematch/imgP0m5bS.png'
p468
sS'../images/att_faces/s7/6.pgm'
p469
S'/Users/mfredrik/data/facematch/img829ofq.png'
p470
sS'../experiments/softmax-fullrun/softmax_att_faces_half.pkl_bb=false_s3/final_image.png'
p471
S'/Users/mfredrik/data/facematch/imgxkXhU6.png'
p472
sS'../images/att_faces/s40/7.pgm'
p473
S'/Users/mfredrik/data/facematch/imgmQqFXp.png'
p474
sS'../experiments/softmax-fullrun/whitebox/softmax_att_faces_full.pkl_bb=false_s29/final_image.png'
p475
S'/Users/mfredrik/data/facematch/imgczlM1_.png'
p476
sS'../images/att_faces/s21/1.pgm'
p477
S'/Users/mfredrik/data/facematch/imgtjrpjD.png'
p478
sS'../images/att_faces/s2/10.pgm'
p479
S'/Users/mfredrik/data/facematch/img3hklHX.png'
p480
sS'../experiments/iminvert-dae-p5000/full/whitebox/dae_mlp_att_faces_full.pkl_bb=false_s4/final_image.png'
p481
S'/Users/mfredrik/data/facematch/imgvhM2NI.png'
p482
sS'../images/att_faces/s25/3.pgm'
p483
S'/Users/mfredrik/data/facematch/imgEwjFe2.png'
p484
sS'../images/att_faces/s19/10.pgm'
p485
S'/Users/mfredrik/data/facematch/imgyvRhYJ.png'
p486
sS'../images/att_faces/s4/4.pgm'
p487
S'/Users/mfredrik/data/facematch/imgLNC9TF.png'
p488
sS'../images/att_faces/s25/10.pgm'
p489
S'/Users/mfredrik/data/facematch/imgDZyEnr.png'
p490
sS'../images/att_faces/s6/3.pgm'
p491
S'/Users/mfredrik/data/facematch/imgNeTLzT.png'
p492
sS'../images/att_faces/s40/3.pgm'
p493
S'/Users/mfredrik/data/facematch/imghcsS7l.png'
p494
sS'../images/att_faces/s15/4.pgm'
p495
S'/Users/mfredrik/data/facematch/imgnSjKjc.png'
p496
sS'../images/att_faces/s10/4.pgm'
p497
S'/Users/mfredrik/data/facematch/imgfPBA2A.png'
p498
sS'../images/att_faces/s16/6.pgm'
p499
S'/Users/mfredrik/data/facematch/imgkLpJ28.png'
p500
sS'../images/att_faces/s17/4.pgm'
p501
S'/Users/mfredrik/data/facematch/img3L8zKG.png'
p502
sS'../images/att_faces/s23/7.pgm'
p503
S'/Users/mfredrik/data/facematch/imgTbZY6U.png'
p504
sS'../images/att_faces/s19/9.pgm'
p505
S'/Users/mfredrik/data/facematch/imgBFRYjT.png'
p506
sS'../experiments/iminvert-dae-p1000/whitebox/dae_mlp_att_faces_half.pkl_bb=false_s13/final_image.png'
p507
S'/Users/mfredrik/data/facematch/imgpua3uV.png'
p508
sS'../images/att_faces/s37/1.pgm'
p509
S'/Users/mfredrik/data/facematch/imggGNpVB.png'
p510
sS'../images/att_faces/s7/8.pgm'
p511
S'/Users/mfredrik/data/facematch/imgfhUzYS.png'
p512
sS'../experiments/iminvert-dae-p5000/whitebox/dae_mlp_att_faces_half.pkl_bb=false_s28/target_img.png'
p513
S'/Users/mfredrik/data/facematch/imgXcPV4r.png'
p514
sS'../experiments/iminvert-dae-p1000/whitebox/dae_mlp_att_faces_half.pkl_bb=false_s31/final_image.png'
p515
S'/Users/mfredrik/data/facematch/imgRyunPy.png'
p516
sS'../experiments/softmax-fullrun/whitebox/softmax_att_faces_full.pkl_bb=false_s17/final_image.png'
p517
S'/Users/mfredrik/data/facematch/imge10TV_.png'
p518
sS'../images/att_faces/s32/3.pgm'
p519
S'/Users/mfredrik/data/facematch/imgaI3i3N.png'
p520
sS'../experiments/softmax-fullrun/whitebox/softmax_att_faces_full.pkl_bb=false_s5/final_image.png'
p521
S'/Users/mfredrik/data/facematch/img_0QWb9.png'
p522
sS'../images/att_faces/s22/8.pgm'
p523
S'/Users/mfredrik/data/facematch/imgCuYuiH.png'
p524
sS'../experiments/iminvert-dae-p5000/whitebox/dae_mlp_att_faces_half.pkl_bb=false_s3/final_image.png'
p525
S'/Users/mfredrik/data/facematch/img_24Xqs.png'
p526
sS'../images/att_faces/s17/1.pgm'
p527
S'/Users/mfredrik/data/facematch/imglnnO5S.png'
p528
sS'../experiments/softmax-fullrun/softmax_att_faces_half.pkl_bb=false_s16/final_image.png'
p529
S'/Users/mfredrik/data/facematch/img2LJbqk.png'
p530
sS'../images/att_faces/s22/1.pgm'
p531
S'/Users/mfredrik/data/facematch/img23T9d3.png'
p532
sS'../experiments/iminvert-dae-p5000/full/whitebox/dae_mlp_att_faces_full.pkl_bb=false_s34/target_img.png'
p533
S'/Users/mfredrik/data/facematch/imghckSsp.png'
p534
sS'../experiments/softmax-fullrun/whitebox/softmax_att_faces_full.pkl_bb=false_s25/target_img.png'
p535
S'/Users/mfredrik/data/facematch/img7Ot81h.png'
p536
sS'../experiments/iminvert-dae-p5000/full/whitebox/dae_mlp_att_faces_full.pkl_bb=false_s13/final_image.png'
p537
S'/Users/mfredrik/data/facematch/img_QWi7F.png'
p538
sS'../experiments/iminvert-dae-p5000/full/blackbox/dae_mlp_att_faces_full.pkl_bb=true_s21/final_image.png'
p539
S'/Users/mfredrik/data/facematch/imgiKlk11.png'
p540
sS'../images/att_faces/s16/9.pgm'
p541
S'/Users/mfredrik/data/facematch/img0SaOCs.png'
p542
sS'../experiments/softmax-fullrun/whitebox/softmax_att_faces_full.pkl_bb=false_s30/final_image.png'
p543
S'/Users/mfredrik/data/facematch/imgIamboy.png'
p544
sS'../experiments/softmax-fullrun/softmax_att_faces_half.pkl_bb=false_s17/final_image.png'
p545
S'/Users/mfredrik/data/facematch/imgrtc_CQ.png'
p546
sS'../images/att_faces/s5/2.pgm'
p547
S'/Users/mfredrik/data/facematch/imgT9xiJz.png'
p548
sS'../experiments/iminvert-dae-p1000/whitebox/dae_mlp_att_faces_half.pkl_bb=false_s31/target_img.png'
p549
S'/Users/mfredrik/data/facematch/imgldCFaM.png'
p550
sS'../images/att_faces/s20/9.pgm'
p551
S'/Users/mfredrik/data/facematch/imgkiloZ3.png'
p552
sS'../experiments/iminvert-dae-p5000/full/whitebox/dae_mlp_att_faces_full.pkl_bb=false_s6/final_image.png'
p553
S'/Users/mfredrik/data/facematch/imgwIdKEd.png'
p554
sS'../images/att_faces/s26/4.pgm'
p555
S'/Users/mfredrik/data/facematch/imgmXzrbP.png'
p556
sS'../images/att_faces/s32/6.pgm'
p557
S'/Users/mfredrik/data/facematch/img5VKxgr.png'
p558
sS'../images/att_faces/s14/5.pgm'
p559
S'/Users/mfredrik/data/facematch/imgFLrb6c.png'
p560
sS'../experiments/softmax-fullrun/softmax_att_faces_full.pkl_bb=false_s11/final_image.png'
p561
S'/Users/mfredrik/data/facematch/imgTl5gjK.png'
p562
sS'../experiments/softmax-fullrun/whitebox/softmax_att_faces_full.pkl_bb=false_s10/final_image.png'
p563
S'/Users/mfredrik/data/facematch/imguq0rQm.png'
p564
sS'../experiments/iminvert-dae-p1000/whitebox/dae_mlp_att_faces_half.pkl_bb=false_s1/target_img.png'
p565
S'/Users/mfredrik/data/facematch/img26ZZKl.png'
p566
sS'../images/att_faces/s1/5.pgm'
p567
S'/Users/mfredrik/data/facematch/imgYWYUaP.png'
p568
sS'../images/att_faces/s5/6.pgm'
p569
S'/Users/mfredrik/data/facematch/imgrqqUQp.png'
p570
sS'../images/att_faces/s34/2.pgm'
p571
S'/Users/mfredrik/data/facematch/imgOwW0Qi.png'
p572
sS'../experiments/softmax-fullrun/softmax_att_faces_full.pkl_bb=false_s28/target_img.png'
p573
S'/Users/mfredrik/data/facematch/img4pLlIF.png'
p574
sS'../experiments/softmax-fullrun/whitebox/softmax_att_faces_full.pkl_bb=false_s15/target_img.png'
p575
S'/Users/mfredrik/data/facematch/imgZ5vBLM.png'
p576
sS'../experiments/softmax-fullrun/softmax_att_faces_full.pkl_bb=false_s4/target_img.png'
p577
S'/Users/mfredrik/data/facematch/img7yqzfC.png'
p578
sS'../experiments/iminvert-dae-p5000/full/whitebox/dae_mlp_att_faces_full.pkl_bb=false_s15/final_image.png'
p579
S'/Users/mfredrik/data/facematch/imgoItGVT.png'
p580
sS'../images/att_faces/s8/9.pgm'
p581
S'/Users/mfredrik/data/facematch/imglCdjzP.png'
p582
sS'../experiments/iminvert-dae-p5000/full/whitebox/dae_mlp_att_faces_full.pkl_bb=false_s35/final_image.png'
p583
S'/Users/mfredrik/data/facematch/imgaIxjXI.png'
p584
sS'../images/att_faces/s10/7.pgm'
p585
S'/Users/mfredrik/data/facematch/imglnjLij.png'
p586
sS'../experiments/softmax-fullrun/whitebox/softmax_att_faces_full.pkl_bb=false_s21/target_img.png'
p587
S'/Users/mfredrik/data/facematch/imgfGnPro.png'
p588
sS'../experiments/iminvert-dae-p5000/full/whitebox/dae_mlp_att_faces_full.pkl_bb=false_s19/final_image.png'
p589
S'/Users/mfredrik/data/facematch/imgUnSbD1.png'
p590
sS'../images/att_faces/s23/1.pgm'
p591
S'/Users/mfredrik/data/facematch/imgFetpoL.png'
p592
sS'../experiments/softmax-fullrun/softmax_att_faces_half.pkl_bb=false_s38/final_image.png'
p593
S'/Users/mfredrik/data/facematch/imgul21sf.png'
p594
sS'../images/att_faces/s3/4.pgm'
p595
S'/Users/mfredrik/data/facematch/imgAyxx5k.png'
p596
sS'../images/att_faces/s4/3.pgm'
p597
S'/Users/mfredrik/data/facematch/imgy0b7ZG.png'
p598
sS'../images/att_faces/s32/7.pgm'
p599
S'/Users/mfredrik/data/facematch/imgq7scRr.png'
p600
sS'../experiments/softmax-fullrun/softmax_att_faces_full.pkl_bb=false_s32/final_image.png'
p601
S'/Users/mfredrik/data/facematch/imgDEI1tI.png'
p602
sS'../images/att_faces/s12/8.pgm'
p603
S'/Users/mfredrik/data/facematch/imggEMIhd.png'
p604
sS'../images/att_faces/s24/4.pgm'
p605
S'/Users/mfredrik/data/facematch/imgp6GwQy.png'
p606
sS'../experiments/softmax-fullrun/softmax_att_faces_full.pkl_bb=false_s7/final_image.png'
p607
S'/Users/mfredrik/data/facematch/imggWy1Wr.png'
p608
sS'../experiments/softmax-fullrun/whitebox/softmax_att_faces_full.pkl_bb=false_s24/final_image.png'
p609
S'/Users/mfredrik/data/facematch/imge965oB.png'
p610
sS'../experiments/softmax-fullrun/softmax_att_faces_half.pkl_bb=false_s9/final_image.png'
p611
S'/Users/mfredrik/data/facematch/img4G_9UH.png'
p612
sS'../images/att_faces/s27/9.pgm'
p613
S'/Users/mfredrik/data/facematch/imgssuzvL.png'
p614
sS'../images/att_faces/s18/5.pgm'
p615
S'/Users/mfredrik/data/facematch/img7JiP9J.png'
p616
sS'../experiments/softmax-fullrun/softmax_att_faces_half.pkl_bb=false_s17/target_img.png'
p617
S'/Users/mfredrik/data/facematch/imgamfXRr.png'
p618
sS'../experiments/iminvert-dae-p5000/whitebox/dae_mlp_att_faces_half.pkl_bb=false_s39/final_image.png'
p619
S'/Users/mfredrik/data/facematch/imgrEAPrf.png'
p620
sS'../experiments/iminvert-dae-p5000/full/blackbox/dae_mlp_att_faces_full.pkl_bb=true_s9/target_img.png'
p621
S'/Users/mfredrik/data/facematch/imgvUVUWh.png'
p622
sS'../images/att_faces/s2/5.pgm'
p623
S'/Users/mfredrik/data/facematch/imgyYWMtZ.png'
p624
sS'../images/att_faces/s38/3.pgm'
p625
S'/Users/mfredrik/data/facematch/imgQZAkDo.png'
p626
sS'../images/att_faces/s34/9.pgm'
p627
S'/Users/mfredrik/data/facematch/imgZMBl9N.png'
p628
sS'../experiments/softmax-fullrun/softmax_att_faces_full.pkl_bb=false_s7/target_img.png'
p629
S'/Users/mfredrik/data/facematch/img7UVaPB.png'
p630
sS'../images/att_faces/s38/7.pgm'
p631
S'/Users/mfredrik/data/facematch/img7Zp7ss.png'
p632
sS'../images/att_faces/s12/2.pgm'
p633
S'/Users/mfredrik/data/facematch/imglb8bWs.png'
p634
sS'../experiments/softmax-fullrun/softmax_att_faces_full.pkl_bb=false_s38/target_img.png'
p635
S'/Users/mfredrik/data/facematch/imgJeW90e.png'
p636
sS'../experiments/iminvert-dae-p5000/full/blackbox/dae_mlp_att_faces_full.pkl_bb=true_s10/final_image.png'
p637
S'/Users/mfredrik/data/facematch/img0bTLJU.png'
p638
sS'../images/att_faces/s7/5.pgm'
p639
S'/Users/mfredrik/data/facematch/imgMnv0aq.png'
p640
sS'../images/att_faces/s28/8.pgm'
p641
S'/Users/mfredrik/data/facematch/img0Vd_dY.png'
p642
sS'../images/att_faces/s37/3.pgm'
p643
S'/Users/mfredrik/data/facematch/img3LcSgS.png'
p644
sS'../experiments/iminvert-dae-p5000/whitebox/dae_mlp_att_faces_half.pkl_bb=false_s7/target_img.png'
p645
S'/Users/mfredrik/data/facematch/imgyQSmS9.png'
p646
sS'../experiments/iminvert-dae-p5000/whitebox/dae_mlp_att_faces_half.pkl_bb=false_s6/final_image.png'
p647
S'/Users/mfredrik/data/facematch/imgaMQ5Kf.png'
p648
sS'../images/att_faces/s31/5.pgm'
p649
S'/Users/mfredrik/data/facematch/imgU4cXuJ.png'
p650
sS'../experiments/iminvert-dae-p5000/full/whitebox/dae_mlp_att_faces_full.pkl_bb=false_s14/final_image.png'
p651
S'/Users/mfredrik/data/facematch/imgbJuBse.png'
p652
sS'../images/att_faces/s10/6.pgm'
p653
S'/Users/mfredrik/data/facematch/imgZ6MVoB.png'
p654
sS'../images/att_faces/s5/1.pgm'
p655
S'/Users/mfredrik/data/facematch/imgTyIEd6.png'
p656
sS'../images/att_faces/s3/5.pgm'
p657
S'/Users/mfredrik/data/facematch/imgy0gaLc.png'
p658
sS'../images/att_faces/s16/4.pgm'
p659
S'/Users/mfredrik/data/facematch/imgurYikl.png'
p660
sS'../images/att_faces/s39/2.pgm'
p661
S'/Users/mfredrik/data/facematch/imgCyqJLm.png'
p662
sS'../images/att_faces/s17/2.pgm'
p663
S'/Users/mfredrik/data/facematch/imgRqcane.png'
p664
sS'../images/att_faces/s36/5.pgm'
p665
S'/Users/mfredrik/data/facematch/imgXeErjX.png'
p666
sS'../images/att_faces/s13/5.pgm'
p667
S'/Users/mfredrik/data/facematch/imgktX1wL.png'
p668
sS'../images/att_faces/s37/8.pgm'
p669
S'/Users/mfredrik/data/facematch/imgSQlajm.png'
p670
sS'../images/att_faces/s16/3.pgm'
p671
S'/Users/mfredrik/data/facematch/imgVxfhs0.png'
p672
sS'../experiments/iminvert-dae-p5000/whitebox/dae_mlp_att_faces_half.pkl_bb=false_s38/final_image.png'
p673
S'/Users/mfredrik/data/facematch/imgIyMqsg.png'
p674
sS'../images/att_faces/s19/6.pgm'
p675
S'/Users/mfredrik/data/facematch/imgMeL9Ba.png'
p676
sS'../experiments/softmax-fullrun/softmax_att_faces_full.pkl_bb=false_s26/target_img.png'
p677
S'/Users/mfredrik/data/facematch/imghIZHXx.png'
p678
sS'../experiments/iminvert-dae-p1000/whitebox/dae_mlp_att_faces_half.pkl_bb=false_s28/target_img.png'
p679
S'/Users/mfredrik/data/facematch/imgijblF8.png'
p680
sS'../images/att_faces/s21/4.pgm'
p681
S'/Users/mfredrik/data/facematch/imgqRwAYp.png'
p682
sS'../experiments/iminvert-dae-p5000/full/blackbox/dae_mlp_att_faces_full.pkl_bb=true_s4/final_image.png'
p683
S'/Users/mfredrik/data/facematch/imgIwF_sg.png'
p684
sS'../experiments/iminvert-dae-p5000/full/whitebox/dae_mlp_att_faces_full.pkl_bb=false_s33/final_image.png'
p685
S'/Users/mfredrik/data/facematch/img4HVOST.png'
p686
sS'../images/att_faces/s5/4.pgm'
p687
S'/Users/mfredrik/data/facematch/imggUDQYr.png'
p688
sS'../images/att_faces/s36/10.pgm'
p689
S'/Users/mfredrik/data/facematch/imgd4jifg.png'
p690
sS'../images/att_faces/s27/6.pgm'
p691
S'/Users/mfredrik/data/facematch/imgjSwNw5.png'
p692
sS'../experiments/iminvert-dae-p5000/full/blackbox/dae_mlp_att_faces_full.pkl_bb=true_s15/final_image.png'
p693
S'/Users/mfredrik/data/facematch/imgXMPlVJ.png'
p694
sS'../experiments/iminvert-dae-p1000/whitebox/dae_mlp_att_faces_half.pkl_bb=false_s16/target_img.png'
p695
S'/Users/mfredrik/data/facematch/img6tMpP_.png'
p696
sS'../images/att_faces/s10/3.pgm'
p697
S'/Users/mfredrik/data/facematch/imgISA0by.png'
p698
sS'../experiments/iminvert-dae-p1000/whitebox/dae_mlp_att_faces_half.pkl_bb=false_s22/final_image.png'
p699
S'/Users/mfredrik/data/facematch/imgwmU6nv.png'
p700
sS'../images/att_faces/s24/5.pgm'
p701
S'/Users/mfredrik/data/facematch/imgoZb61n.png'
p702
sS'../images/att_faces/s18/7.pgm'
p703
S'/Users/mfredrik/data/facematch/imguYZBXU.png'
p704
sS'../images/att_faces/s19/3.pgm'
p705
S'/Users/mfredrik/data/facematch/imgf7MHAc.png'
p706
sS'../images/att_faces/s11/9.pgm'
p707
S'/Users/mfredrik/data/facematch/imgKd11VZ.png'
p708
sS'../experiments/iminvert-dae-p5000/whitebox/dae_mlp_att_faces_half.pkl_bb=false_s20/target_img.png'
p709
S'/Users/mfredrik/data/facematch/imgIZ8fvv.png'
p710
sS'../images/att_faces/s9/7.pgm'
p711
S'/Users/mfredrik/data/facematch/imgNJlen2.png'
p712
sS'../images/att_faces/s11/10.pgm'
p713
S'/Users/mfredrik/data/facematch/imgvVj7Sj.png'
p714
sS'../images/att_faces/s29/4.pgm'
p715
S'/Users/mfredrik/data/facematch/imgmGF8hB.png'
p716
sS'../experiments/iminvert-dae-p5000/full/blackbox/dae_mlp_att_faces_full.pkl_bb=true_s16/target_img.png'
p717
S'/Users/mfredrik/data/facematch/img4KydOv.png'
p718
sS'../experiments/iminvert-dae-p5000/full/blackbox/dae_mlp_att_faces_full.pkl_bb=true_s35/final_image.png'
p719
S'/Users/mfredrik/data/facematch/imgoglZGb.png'
p720
sS'../images/att_faces/s27/2.pgm'
p721
S'/Users/mfredrik/data/facematch/img_7i_8v.png'
p722
sS'../experiments/softmax-fullrun/softmax_att_faces_half.pkl_bb=false_s7/target_img.png'
p723
S'/Users/mfredrik/data/facematch/imgxBOVgr.png'
p724
sS'../experiments/softmax-fullrun/softmax_att_faces_full.pkl_bb=false_s34/final_image.png'
p725
S'/Users/mfredrik/data/facematch/imgmmKmti.png'
p726
sS'../images/att_faces/s6/9.pgm'
p727
S'/Users/mfredrik/data/facematch/imgWSzb3h.png'
p728
sS'../images/att_faces/s26/2.pgm'
p729
S'/Users/mfredrik/data/facematch/imgZUTnaO.png'
p730
sS'../images/att_faces/s20/7.pgm'
p731
S'/Users/mfredrik/data/facematch/imgD9JQm1.png'
p732
sS'../experiments/softmax-fullrun/whitebox/softmax_att_faces_full.pkl_bb=false_s20/final_image.png'
p733
S'/Users/mfredrik/data/facematch/img1PVLxk.png'
p734
sS'../images/att_faces/s22/2.pgm'
p735
S'/Users/mfredrik/data/facematch/img8fCSJ4.png'
p736
sS'../images/att_faces/s36/1.pgm'
p737
S'/Users/mfredrik/data/facematch/imgW8s8ej.png'
p738
sS'../experiments/iminvert-dae-p5000/full/whitebox/dae_mlp_att_faces_full.pkl_bb=false_s21/final_image.png'
p739
S'/Users/mfredrik/data/facematch/imgQDJzmq.png'
p740
sS'../images/att_faces/s38/6.pgm'
p741
S'/Users/mfredrik/data/facematch/imgSOLWEc.png'
p742
sS'../experiments/softmax-fullrun/softmax_att_faces_full.pkl_bb=false_s38/final_image.png'
p743
S'/Users/mfredrik/data/facematch/imgW7Ji5p.png'
p744
sS'../experiments/softmax-fullrun/whitebox/softmax_att_faces_full.pkl_bb=false_s6/final_image.png'
p745
S'/Users/mfredrik/data/facematch/img209Vt2.png'
p746
sS'../images/att_faces/s26/7.pgm'
p747
S'/Users/mfredrik/data/facematch/imgkxfeVp.png'
p748
sS'../images/att_faces/s17/6.pgm'
p749
S'/Users/mfredrik/data/facematch/imgmAW98j.png'
p750
sS'../experiments/softmax-fullrun/whitebox/softmax_att_faces_full.pkl_bb=false_s12/final_image.png'
p751
S'/Users/mfredrik/data/facematch/img5cP59K.png'
p752
sS'../images/att_faces/s39/10.pgm'
p753
S'/Users/mfredrik/data/facematch/imggS1pSh.png'
p754
sS'../experiments/softmax-fullrun/softmax_att_faces_half.pkl_bb=false_s31/target_img.png'
p755
S'/Users/mfredrik/data/facematch/imgPOLWsY.png'
p756
sS'../experiments/softmax-fullrun/whitebox/softmax_att_faces_full.pkl_bb=false_s2/final_image.png'
p757
S'/Users/mfredrik/data/facematch/imgPErPOb.png'
p758
sS'../experiments/iminvert-dae-p1000/whitebox/dae_mlp_att_faces_half.pkl_bb=false_s6/final_image.png'
p759
S'/Users/mfredrik/data/facematch/imgC4Y_TE.png'
p760
sS'../images/att_faces/s3/6.pgm'
p761
S'/Users/mfredrik/data/facematch/img0kryED.png'
p762
sS'../experiments/iminvert-dae-p1000/whitebox/dae_mlp_att_faces_half.pkl_bb=false_s21/final_image.png'
p763
S'/Users/mfredrik/data/facematch/imgrze90_.png'
p764
sS'../experiments/iminvert-dae-p5000/full/whitebox/dae_mlp_att_faces_full.pkl_bb=false_s16/final_image.png'
p765
S'/Users/mfredrik/data/facematch/imgJzBnfc.png'
p766
sS'../experiments/softmax-fullrun/whitebox/softmax_att_faces_full.pkl_bb=false_s3/final_image.png'
p767
S'/Users/mfredrik/data/facematch/imgsCyU27.png'
p768
sS'../experiments/softmax-fullrun/softmax_att_faces_half.pkl_bb=false_s14/final_image.png'
p769
S'/Users/mfredrik/data/facematch/imgVgtikw.png'
p770
sS'../images/att_faces/s14/6.pgm'
p771
S'/Users/mfredrik/data/facematch/imgJGX7Zf.png'
p772
sS'../images/att_faces/s38/5.pgm'
p773
S'/Users/mfredrik/data/facematch/imgoxnda3.png'
p774
sS'../experiments/iminvert-dae-p5000/full/whitebox/dae_mlp_att_faces_full.pkl_bb=false_s8/final_image.png'
p775
S'/Users/mfredrik/data/facematch/imgrATucS.png'
p776
sS'../images/att_faces/s8/6.pgm'
p777
S'/Users/mfredrik/data/facematch/imgcAxdUY.png'
p778
sS'../experiments/softmax-fullrun/whitebox/softmax_att_faces_full.pkl_bb=false_s39/target_img.png'
p779
S'/Users/mfredrik/data/facematch/imgC5Vx7u.png'
p780
sS'../images/att_faces/s15/2.pgm'
p781
S'/Users/mfredrik/data/facematch/imgb978FJ.png'
p782
sS'../images/att_faces/s23/3.pgm'
p783
S'/Users/mfredrik/data/facematch/imgUKsmV6.png'
p784
sS'../images/att_faces/s22/6.pgm'
p785
S'/Users/mfredrik/data/facematch/imgR2frhk.png'
p786
sS'../experiments/softmax-fullrun/softmax_att_faces_half.pkl_bb=false_s20/final_image.png'
p787
S'/Users/mfredrik/data/facematch/imgThiJia.png'
p788
sS'../images/att_faces/s40/1.pgm'
p789
S'/Users/mfredrik/data/facematch/imgW3tpUg.png'
p790
sS'../experiments/iminvert-dae-p5000/full/whitebox/dae_mlp_att_faces_full.pkl_bb=false_s26/target_img.png'
p791
S'/Users/mfredrik/data/facematch/imgsQ6t24.png'
p792
sS'../images/att_faces/s25/7.pgm'
p793
S'/Users/mfredrik/data/facematch/img0oWiP8.png'
p794
sS'../images/att_faces/s14/1.pgm'
p795
S'/Users/mfredrik/data/facematch/imgiHjwUC.png'
p796
sS'../experiments/softmax-fullrun/softmax_att_faces_full.pkl_bb=false_s33/final_image.png'
p797
S'/Users/mfredrik/data/facematch/img1wtWEZ.png'
p798
sS'../experiments/softmax-fullrun/whitebox/softmax_att_faces_full.pkl_bb=false_s19/final_image.png'
p799
S'/Users/mfredrik/data/facematch/imgUUDorq.png'
p800
sS'../images/att_faces/s10/8.pgm'
p801
S'/Users/mfredrik/data/facematch/imgScOJTf.png'
p802
sS'../experiments/iminvert-dae-p5000/full/whitebox/dae_mlp_att_faces_full.pkl_bb=false_s37/final_image.png'
p803
S'/Users/mfredrik/data/facematch/imgI5X7f7.png'
p804
sS'../experiments/iminvert-dae-p5000/whitebox/dae_mlp_att_faces_half.pkl_bb=false_s16/final_image.png'
p805
S'/Users/mfredrik/data/facematch/imgU8oTwC.png'
p806
sS'../images/att_faces/s22/5.pgm'
p807
S'/Users/mfredrik/data/facematch/imgo6lTXi.png'
p808
sS'../images/att_faces/s2/8.pgm'
p809
S'/Users/mfredrik/data/facematch/imghFRNZH.png'
p810
sS'../images/att_faces/s9/9.pgm'
p811
S'/Users/mfredrik/data/facematch/imgsgkf29.png'
p812
sS'../images/att_faces/s14/7.pgm'
p813
S'/Users/mfredrik/data/facematch/imgdo4YFS.png'
p814
sS'../experiments/iminvert-dae-p1000/whitebox/dae_mlp_att_faces_half.pkl_bb=false_s10/final_image.png'
p815
S'/Users/mfredrik/data/facematch/imgT8l3AH.png'
p816
sS'../experiments/iminvert-dae-p1000/whitebox/dae_mlp_att_faces_half.pkl_bb=false_s16/final_image.png'
p817
S'/Users/mfredrik/data/facematch/img1fQFdH.png'
p818
sS'../images/att_faces/s32/2.pgm'
p819
S'/Users/mfredrik/data/facematch/imgE3UDMG.png'
p820
sS'../images/att_faces/s14/4.pgm'
p821
S'/Users/mfredrik/data/facematch/imgH2kYte.png'
p822
sS'../experiments/softmax-fullrun/softmax_att_faces_full.pkl_bb=false_s27/target_img.png'
p823
S'/Users/mfredrik/data/facematch/imgIw48F8.png'
p824
sS'../experiments/iminvert-dae-p5000/whitebox/dae_mlp_att_faces_half.pkl_bb=false_s16/target_img.png'
p825
S'/Users/mfredrik/data/facematch/imgKm8a7u.png'
p826
sS'../images/att_faces/s37/9.pgm'
p827
S'/Users/mfredrik/data/facematch/imgtrvcjq.png'
p828
sS'../images/att_faces/s1/4.pgm'
p829
S'/Users/mfredrik/data/facematch/imgwzSVZq.png'
p830
sS'../experiments/softmax-fullrun/whitebox/softmax_att_faces_full.pkl_bb=false_s1/target_img.png'
p831
S'/Users/mfredrik/data/facematch/imgdumiFK.png'
p832
sS'../experiments/iminvert-dae-p1000/whitebox/dae_mlp_att_faces_half.pkl_bb=false_s33/final_image.png'
p833
S'/Users/mfredrik/data/facematch/imggwhphv.png'
p834
sS'../images/att_faces/s17/3.pgm'
p835
S'/Users/mfredrik/data/facematch/imgUdVsqB.png'
p836
sS'../experiments/iminvert-dae-p5000/full/blackbox/dae_mlp_att_faces_full.pkl_bb=true_s18/target_img.png'
p837
S'/Users/mfredrik/data/facematch/imgS4zZgp.png'
p838
sS'../images/att_faces/s22/10.pgm'
p839
S'/Users/mfredrik/data/facematch/imgNCq6_V.png'
p840
sS'../experiments/softmax-fullrun/whitebox/softmax_att_faces_full.pkl_bb=false_s14/target_img.png'
p841
S'/Users/mfredrik/data/facematch/imgFEVdmn.png'
p842
sS'../images/att_faces/s38/10.pgm'
p843
S'/Users/mfredrik/data/facematch/imgPJDkgs.png'
p844
sS'../images/att_faces/s12/7.pgm'
p845
S'/Users/mfredrik/data/facematch/img8HIsv7.png'
p846
sS'../images/att_faces/s30/7.pgm'
p847
S'/Users/mfredrik/data/facematch/imgbk_EEs.png'
p848
sS'../images/att_faces/s30/4.pgm'
p849
S'/Users/mfredrik/data/facematch/imgvt0oBV.png'
p850
sS'../images/att_faces/s29/1.pgm'
p851
S'/Users/mfredrik/data/facematch/imgp3s0kH.png'
p852
sS'../images/att_faces/s24/1.pgm'
p853
S'/Users/mfredrik/data/facematch/imgyE46Rm.png'
p854
sS'../images/att_faces/s1/8.pgm'
p855
S'/Users/mfredrik/data/facematch/imgGeqW_r.png'
p856
sS'../images/att_faces/s31/3.pgm'
p857
S'/Users/mfredrik/data/facematch/imgGbA0qr.png'
p858
sS'../images/att_faces/s35/3.pgm'
p859
S'/Users/mfredrik/data/facematch/imgnFnSVE.png'
p860
sS'../images/att_faces/s26/9.pgm'
p861
S'/Users/mfredrik/data/facematch/img2kyuK4.png'
p862
sS'../experiments/iminvert-dae-p5000/whitebox/dae_mlp_att_faces_half.pkl_bb=false_s1/target_img.png'
p863
S'/Users/mfredrik/data/facematch/imgtHyk3T.png'
p864
sS'../images/att_faces/s33/5.pgm'
p865
S'/Users/mfredrik/data/facematch/imgaDa1ss.png'
p866
sS'../images/att_faces/s25/8.pgm'
p867
S'/Users/mfredrik/data/facematch/imgQCjTIL.png'
p868
sS'../experiments/softmax-fullrun/whitebox/softmax_att_faces_full.pkl_bb=false_s26/final_image.png'
p869
S'/Users/mfredrik/data/facematch/imgTLyrEP.png'
p870
sS'../images/att_faces/s37/5.pgm'
p871
S'/Users/mfredrik/data/facematch/imgRNTAIt.png'
p872
sS'../experiments/softmax-fullrun/softmax_att_faces_full.pkl_bb=false_s34/target_img.png'
p873
S'/Users/mfredrik/data/facematch/img1qJCaL.png'
p874
sS'../images/att_faces/s14/3.pgm'
p875
S'/Users/mfredrik/data/facematch/imggZwwdP.png'
p876
sS'../images/att_faces/s2/1.pgm'
p877
S'/Users/mfredrik/data/facematch/imgjtss01.png'
p878
sS'../experiments/softmax-fullrun/whitebox/softmax_att_faces_full.pkl_bb=false_s13/final_image.png'
p879
S'/Users/mfredrik/data/facematch/imghtHnkC.png'
p880
sS'../images/att_faces/s29/9.pgm'
p881
S'/Users/mfredrik/data/facematch/imgf6vamt.png'
p882
sS'../images/att_faces/s15/6.pgm'
p883
S'/Users/mfredrik/data/facematch/imgHPIQbi.png'
p884
sS'../images/att_faces/s3/8.pgm'
p885
S'/Users/mfredrik/data/facematch/imgpEIigC.png'
p886
sS'../experiments/softmax-fullrun/softmax_att_faces_full.pkl_bb=false_s31/final_image.png'
p887
S'/Users/mfredrik/data/facematch/img_3f5y7.png'
p888
sS'../images/att_faces/s31/6.pgm'
p889
S'/Users/mfredrik/data/facematch/imgMXWp9I.png'
p890
sS'../images/att_faces/s10/5.pgm'
p891
S'/Users/mfredrik/data/facematch/imgjA_Tav.png'
p892
sS'../experiments/softmax-fullrun/softmax_att_faces_full.pkl_bb=false_s21/final_image.png'
p893
S'/Users/mfredrik/data/facematch/img1onODW.png'
p894
sS'../images/att_faces/s17/9.pgm'
p895
S'/Users/mfredrik/data/facematch/imgnEtZga.png'
p896
sS'../images/att_faces/s4/7.pgm'
p897
S'/Users/mfredrik/data/facematch/img24_kNs.png'
p898
sS'../images/att_faces/s6/4.pgm'
p899
S'/Users/mfredrik/data/facematch/imgsecQiB.png'
p900
sS'../experiments/iminvert-dae-p5000/full/blackbox/dae_mlp_att_faces_full.pkl_bb=true_s17/final_image.png'
p901
S'/Users/mfredrik/data/facematch/imgiQciDi.png'
p902
sS'../experiments/softmax-fullrun/whitebox/softmax_att_faces_full.pkl_bb=false_s23/final_image.png'
p903
S'/Users/mfredrik/data/facematch/imgJDaMyU.png'
p904
sS'../images/att_faces/s21/3.pgm'
p905
S'/Users/mfredrik/data/facematch/img2ZYty5.png'
p906
sS'../experiments/iminvert-dae-p5000/full/blackbox/dae_mlp_att_faces_full.pkl_bb=true_s28/final_image.png'
p907
S'/Users/mfredrik/data/facematch/img3mrouB.png'
p908
sS'../images/att_faces/s33/4.pgm'
p909
S'/Users/mfredrik/data/facematch/imgj_1HsV.png'
p910
sS'../images/att_faces/s7/2.pgm'
p911
S'/Users/mfredrik/data/facematch/img7VLbML.png'
p912
sS'../experiments/iminvert-dae-p1000/whitebox/dae_mlp_att_faces_half.pkl_bb=false_s18/final_image.png'
p913
S'/Users/mfredrik/data/facematch/imgYSkHHO.png'
p914
sS'../images/att_faces/s40/10.pgm'
p915
S'/Users/mfredrik/data/facematch/imgdCHQiO.png'
p916
sS'../experiments/iminvert-dae-p5000/full/blackbox/dae_mlp_att_faces_full.pkl_bb=true_s27/final_image.png'
p917
S'/Users/mfredrik/data/facematch/imgvDECsq.png'
p918
sS'../experiments/softmax-fullrun/softmax_att_faces_full.pkl_bb=false_s24/final_image.png'
p919
S'/Users/mfredrik/data/facematch/imgGXeUSj.png'
p920
sS'../images/att_faces/s38/4.pgm'
p921
S'/Users/mfredrik/data/facematch/img37Vgqb.png'
p922
sS'../images/att_faces/s5/7.pgm'
p923
S'/Users/mfredrik/data/facematch/imgcPNsPE.png'
p924
sS'../experiments/softmax-fullrun/whitebox/softmax_att_faces_full.pkl_bb=false_s33/target_img.png'
p925
S'/Users/mfredrik/data/facematch/imgMfG9Nk.png'
p926
sS'../experiments/softmax-fullrun/softmax_att_faces_half.pkl_bb=false_s35/final_image.png'
p927
S'/Users/mfredrik/data/facematch/img4zXsCX.png'
p928
sS'../experiments/softmax-fullrun/whitebox/softmax_att_faces_full.pkl_bb=false_s37/target_img.png'
p929
S'/Users/mfredrik/data/facematch/img8FFbom.png'
p930
sS'../experiments/softmax-fullrun/whitebox/softmax_att_faces_full.pkl_bb=false_s11/target_img.png'
p931
S'/Users/mfredrik/data/facematch/img4XEFot.png'
p932
sS'../experiments/iminvert-dae-p5000/full/whitebox/dae_mlp_att_faces_full.pkl_bb=false_s27/final_image.png'
p933
S'/Users/mfredrik/data/facematch/img0OKP8s.png'
p934
sS'../experiments/iminvert-dae-p5000/whitebox/dae_mlp_att_faces_half.pkl_bb=false_s37/final_image.png'
p935
S'/Users/mfredrik/data/facematch/imgnVv9b4.png'
p936
sS'../images/att_faces/s4/8.pgm'
p937
S'/Users/mfredrik/data/facematch/imgdPjcMe.png'
p938
sS'../experiments/iminvert-dae-p5000/full/whitebox/dae_mlp_att_faces_full.pkl_bb=false_s7/target_img.png'
p939
S'/Users/mfredrik/data/facematch/imgqR1CBl.png'
p940
sS'../images/att_faces/s13/3.pgm'
p941
S'/Users/mfredrik/data/facematch/imgRJDeZW.png'
p942
sS'../images/att_faces/s12/9.pgm'
p943
S'/Users/mfredrik/data/facematch/imguK0Bs7.png'
p944
sS'../experiments/softmax-fullrun/whitebox/softmax_att_faces_full.pkl_bb=false_s31/final_image.png'
p945
S'/Users/mfredrik/data/facematch/img0fPNX_.png'
p946
sS'../experiments/iminvert-dae-p5000/whitebox/dae_mlp_att_faces_half.pkl_bb=false_s33/final_image.png'
p947
S'/Users/mfredrik/data/facematch/imgybbkIr.png'
p948
sS'../images/att_faces/s7/7.pgm'
p949
S'/Users/mfredrik/data/facematch/imgDtSSPq.png'
p950
sS'../experiments/iminvert-dae-p5000/full/blackbox/dae_mlp_att_faces_full.pkl_bb=true_s7/target_img.png'
p951
S'/Users/mfredrik/data/facematch/imgp2Wxmr.png'
p952
sS'../images/att_faces/s7/4.pgm'
p953
S'/Users/mfredrik/data/facematch/img2Ul0Sp.png'
p954
sS'../images/att_faces/s22/7.pgm'
p955
S'/Users/mfredrik/data/facematch/imgL4oyTL.png'
p956
sS'../images/att_faces/s18/9.pgm'
p957
S'/Users/mfredrik/data/facematch/imgQYEyoD.png'
p958
sS'../images/att_faces/s1/6.pgm'
p959
S'/Users/mfredrik/data/facematch/imgIGEbwG.png'
p960
sS'../images/att_faces/s18/4.pgm'
p961
S'/Users/mfredrik/data/facematch/imgnRTGZ_.png'
p962
sS'../experiments/iminvert-dae-p5000/full/whitebox/dae_mlp_att_faces_full.pkl_bb=false_s39/final_image.png'
p963
S'/Users/mfredrik/data/facematch/imgnXOoay.png'
p964
sS'../images/att_faces/s13/1.pgm'
p965
S'/Users/mfredrik/data/facematch/img6FQBFp.png'
p966
sS'../images/att_faces/s31/10.pgm'
p967
S'/Users/mfredrik/data/facematch/imgGgC_TN.png'
p968
sS'../experiments/softmax-fullrun/whitebox/softmax_att_faces_full.pkl_bb=false_s14/final_image.png'
p969
S'/Users/mfredrik/data/facematch/imgBfrI8i.png'
p970
sS'../experiments/iminvert-dae-p5000/full/whitebox/dae_mlp_att_faces_full.pkl_bb=false_s17/final_image.png'
p971
S'/Users/mfredrik/data/facematch/imgsfPif2.png'
p972
sS'../images/att_faces/s28/4.pgm'
p973
S'/Users/mfredrik/data/facematch/imgUsW9Hv.png'
p974
sS'../images/att_faces/s20/6.pgm'
p975
S'/Users/mfredrik/data/facematch/imgNvEFIQ.png'
p976
sS'../images/att_faces/s9/5.pgm'
p977
S'/Users/mfredrik/data/facematch/imgtjBa88.png'
p978
sS'../experiments/softmax-fullrun/softmax_att_faces_half.pkl_bb=false_s5/final_image.png'
p979
S'/Users/mfredrik/data/facematch/imgIh5hhY.png'
p980
sS'../images/att_faces/s9/6.pgm'
p981
S'/Users/mfredrik/data/facematch/img5ThGjp.png'
p982
sS'../experiments/softmax-fullrun/whitebox/softmax_att_faces_full.pkl_bb=false_s25/final_image.png'
p983
S'/Users/mfredrik/data/facematch/imguZKDQQ.png'
p984
sS'../images/att_faces/s34/1.pgm'
p985
S'/Users/mfredrik/data/facematch/img92kibZ.png'
p986
sS'../images/att_faces/s19/7.pgm'
p987
S'/Users/mfredrik/data/facematch/imgBwT7jm.png'
p988
sS'../images/att_faces/s36/9.pgm'
p989
S'/Users/mfredrik/data/facematch/imgb3HNuk.png'
p990
sS'../images/att_faces/s19/1.pgm'
p991
S'/Users/mfredrik/data/facematch/imgfoMZCQ.png'
p992
sS'../experiments/softmax-fullrun/whitebox/softmax_att_faces_full.pkl_bb=false_s23/target_img.png'
p993
S'/Users/mfredrik/data/facematch/imgMAxIFl.png'
p994
sS'../experiments/softmax-fullrun/softmax_att_faces_full.pkl_bb=false_s16/final_image.png'
p995
S'/Users/mfredrik/data/facematch/img3hdOGm.png'
p996
sS'../images/att_faces/s37/10.pgm'
p997
S'/Users/mfredrik/data/facematch/imgTS3FB2.png'
p998
sS'../images/att_faces/s36/2.pgm'
p999
S'/Users/mfredrik/data/facematch/imgt90DZz.png'
p1000
sS'../images/att_faces/s27/1.pgm'
p1001
S'/Users/mfredrik/data/facematch/img3QHQUC.png'
p1002
sS'../experiments/iminvert-dae-p1000/whitebox/dae_mlp_att_faces_half.pkl_bb=false_s3/final_image.png'
p1003
S'/Users/mfredrik/data/facematch/imgAe_vTW.png'
p1004
sS'../images/att_faces/s23/9.pgm'
p1005
S'/Users/mfredrik/data/facematch/imgx5Wemq.png'
p1006
sS'../images/att_faces/s32/4.pgm'
p1007
S'/Users/mfredrik/data/facematch/imgClwNof.png'
p1008
sS'../experiments/iminvert-dae-p5000/whitebox/dae_mlp_att_faces_half.pkl_bb=false_s18/target_img.png'
p1009
S'/Users/mfredrik/data/facematch/imgYJ_1F1.png'
p1010
sS'../experiments/iminvert-dae-p5000/whitebox/dae_mlp_att_faces_half.pkl_bb=false_s8/final_image.png'
p1011
S'/Users/mfredrik/data/facematch/imgW6c0DK.png'
p1012
sS'../experiments/softmax-fullrun/softmax_att_faces_full.pkl_bb=false_s6/final_image.png'
p1013
S'/Users/mfredrik/data/facematch/imgkkeaRP.png'
p1014
sS'../images/att_faces/s19/5.pgm'
p1015
S'/Users/mfredrik/data/facematch/imgZTHDpW.png'
p1016
sS'../images/att_faces/s3/9.pgm'
p1017
S'/Users/mfredrik/data/facematch/imgVksQuS.png'
p1018
sS'../experiments/softmax-fullrun/softmax_att_faces_full.pkl_bb=false_s2/final_image.png'
p1019
S'/Users/mfredrik/data/facematch/img4qY74J.png'
p1020
sS'../images/att_faces/s37/6.pgm'
p1021
S'/Users/mfredrik/data/facematch/imgKH7cd2.png'
p1022
sS'../images/att_faces/s30/8.pgm'
p1023
S'/Users/mfredrik/data/facematch/imglVagnr.png'
p1024
sS'../experiments/iminvert-dae-p1000/whitebox/dae_mlp_att_faces_half.pkl_bb=false_s14/final_image.png'
p1025
S'/Users/mfredrik/data/facematch/imgGZDHsQ.png'
p1026
sS'../images/att_faces/s33/9.pgm'
p1027
S'/Users/mfredrik/data/facematch/imgfbBLAV.png'
p1028
sS'../images/att_faces/s9/1.pgm'
p1029
S'/Users/mfredrik/data/facematch/imgKgshKt.png'
p1030
sS'../experiments/iminvert-dae-p5000/full/whitebox/dae_mlp_att_faces_full.pkl_bb=false_s32/final_image.png'
p1031
S'/Users/mfredrik/data/facematch/img4UHDiI.png'
p1032
sS'../images/att_faces/s12/10.pgm'
p1033
S'/Users/mfredrik/data/facematch/imghmYgV_.png'
p1034
sS'../images/att_faces/s1/1.pgm'
p1035
S'/Users/mfredrik/data/facematch/imgkMzJJv.png'
p1036
sS'../experiments/softmax-fullrun/softmax_att_faces_half.pkl_bb=false_s2/final_image.png'
p1037
S'/Users/mfredrik/data/facematch/imgdUSRxF.png'
p1038
sS'../images/att_faces/s27/8.pgm'
p1039
S'/Users/mfredrik/data/facematch/imgwz0LAJ.png'
p1040
sS'../images/att_faces/s32/1.pgm'
p1041
S'/Users/mfredrik/data/facematch/imgRkcBdv.png'
p1042
sS'../images/att_faces/s2/4.pgm'
p1043
S'/Users/mfredrik/data/facematch/imgHXOnsG.png'
p1044
sS'../images/att_faces/s36/7.pgm'
p1045
S'/Users/mfredrik/data/facematch/img_T7f2q.png'
p1046
sS'../images/att_faces/s4/10.pgm'
p1047
S'/Users/mfredrik/data/facematch/imgPD4jCc.png'
p1048
sS'../images/att_faces/s27/7.pgm'
p1049
S'/Users/mfredrik/data/facematch/img4G5nxO.png'
p1050
sS'../images/att_faces/s28/1.pgm'
p1051
S'/Users/mfredrik/data/facematch/imgI6lxCk.png'
p1052
sS'../experiments/iminvert-dae-p5000/full/whitebox/dae_mlp_att_faces_full.pkl_bb=false_s10/final_image.png'
p1053
S'/Users/mfredrik/data/facematch/imgTLchmE.png'
p1054
sS'../images/att_faces/s26/3.pgm'
p1055
S'/Users/mfredrik/data/facematch/imgocR59A.png'
p1056
sS'../images/att_faces/s34/8.pgm'
p1057
S'/Users/mfredrik/data/facematch/imgy3NIms.png'
p1058
sS'../images/att_faces/s22/3.pgm'
p1059
S'/Users/mfredrik/data/facematch/imgpaVMCU.png'
p1060
sS'../experiments/softmax-fullrun/whitebox/softmax_att_faces_full.pkl_bb=false_s39/final_image.png'
p1061
S'/Users/mfredrik/data/facematch/img6vhLbV.png'
p1062
sS'../experiments/softmax-fullrun/softmax_att_faces_full.pkl_bb=false_s5/final_image.png'
p1063
S'/Users/mfredrik/data/facematch/imgH3VWyX.png'
p1064
sS'../experiments/iminvert-dae-p1000/whitebox/dae_mlp_att_faces_half.pkl_bb=false_s39/final_image.png'
p1065
S'/Users/mfredrik/data/facematch/img9Ifg2b.png'
p1066
sS'../images/att_faces/s16/7.pgm'
p1067
S'/Users/mfredrik/data/facematch/imgAU1_FU.png'
p1068
sS'../images/att_faces/s4/5.pgm'
p1069
S'/Users/mfredrik/data/facematch/imglKR8l_.png'
p1070
sS'../experiments/softmax-fullrun/whitebox/softmax_att_faces_full.pkl_bb=false_s13/target_img.png'
p1071
S'/Users/mfredrik/data/facematch/imgB1nenr.png'
p1072
sS'../images/att_faces/s27/3.pgm'
p1073
S'/Users/mfredrik/data/facematch/img8K9g2o.png'
p1074
sS'../experiments/softmax-fullrun/softmax_att_faces_half.pkl_bb=false_s40/target_img.png'
p1075
S'/Users/mfredrik/data/facematch/imgsnH4O4.png'
p1076
sS'../images/att_faces/s21/6.pgm'
p1077
S'/Users/mfredrik/data/facematch/imgtPAer5.png'
p1078
sS'../experiments/softmax-fullrun/softmax_att_faces_half.pkl_bb=false_s3/target_img.png'
p1079
S'/Users/mfredrik/data/facematch/imglQXASl.png'
p1080
sS'../images/att_faces/s4/2.pgm'
p1081
S'/Users/mfredrik/data/facematch/imgrWpvaq.png'
p1082
sS'../experiments/iminvert-dae-p5000/full/blackbox/dae_mlp_att_faces_full.pkl_bb=true_s20/target_img.png'
p1083
S'/Users/mfredrik/data/facematch/imgMDN3nN.png'
p1084
sS'../experiments/iminvert-dae-p5000/whitebox/dae_mlp_att_faces_half.pkl_bb=false_s19/final_image.png'
p1085
S'/Users/mfredrik/data/facematch/imgFHf_0u.png'
p1086
sS'../experiments/iminvert-dae-p5000/whitebox/dae_mlp_att_faces_half.pkl_bb=false_s22/final_image.png'
p1087
S'/Users/mfredrik/data/facematch/imgVCVVxH.png'
p1088
sS'../images/att_faces/s23/10.pgm'
p1089
S'/Users/mfredrik/data/facematch/imgiHk0nQ.png'
p1090
sS'../images/att_faces/s34/7.pgm'
p1091
S'/Users/mfredrik/data/facematch/img4GKoHx.png'
p1092
sS'../images/att_faces/s27/5.pgm'
p1093
S'/Users/mfredrik/data/facematch/imgVzJgzR.png'
p1094
sS'../experiments/iminvert-dae-p1000/whitebox/dae_mlp_att_faces_half.pkl_bb=false_s4/final_image.png'
p1095
S'/Users/mfredrik/data/facematch/imgkiL0Ka.png'
p1096
sS'../experiments/iminvert-dae-p5000/full/blackbox/dae_mlp_att_faces_full.pkl_bb=true_s1/target_img.png'
p1097
S'/Users/mfredrik/data/facematch/imgOF9EtC.png'
p1098
sS'../experiments/iminvert-dae-p1000/whitebox/dae_mlp_att_faces_half.pkl_bb=false_s29/final_image.png'
p1099
S'/Users/mfredrik/data/facematch/imgrADcsk.png'
p1100
sS'../experiments/softmax-fullrun/softmax_att_faces_half.pkl_bb=false_s25/target_img.png'
p1101
S'/Users/mfredrik/data/facematch/imgxY4NZ2.png'
p1102
sS'../experiments/softmax-fullrun/whitebox/softmax_att_faces_full.pkl_bb=false_s6/target_img.png'
p1103
S'/Users/mfredrik/data/facematch/imgw986eM.png'
p1104
sS'../images/att_faces/s12/4.pgm'
p1105
S'/Users/mfredrik/data/facematch/imgRMhB7B.png'
p1106
sS'../experiments/softmax-fullrun/softmax_att_faces_full.pkl_bb=false_s12/target_img.png'
p1107
S'/Users/mfredrik/data/facematch/imgLsWX41.png'
p1108
sS'../experiments/iminvert-dae-p1000/whitebox/dae_mlp_att_faces_half.pkl_bb=false_s34/target_img.png'
p1109
S'/Users/mfredrik/data/facematch/img1Opoyh.png'
p1110
sS'../experiments/iminvert-dae-p1000/whitebox/dae_mlp_att_faces_half.pkl_bb=false_s12/final_image.png'
p1111
S'/Users/mfredrik/data/facematch/imgNZmw_t.png'
p1112
sS'../images/att_faces/s24/8.pgm'
p1113
S'/Users/mfredrik/data/facematch/imgjAl6Oa.png'
p1114
sS'../images/att_faces/s23/5.pgm'
p1115
S'/Users/mfredrik/data/facematch/imgzoczBG.png'
p1116
sS'../experiments/iminvert-dae-p1000/whitebox/dae_mlp_att_faces_half.pkl_bb=false_s38/final_image.png'
p1117
S'/Users/mfredrik/data/facematch/imgSc6H4L.png'
p1118
sS'../experiments/softmax-fullrun/softmax_att_faces_half.pkl_bb=false_s10/target_img.png'
p1119
S'/Users/mfredrik/data/facematch/imgv7Do_u.png'
p1120
sS'../images/att_faces/s31/1.pgm'
p1121
S'/Users/mfredrik/data/facematch/imgeOguhh.png'
p1122
sS'../experiments/softmax-fullrun/softmax_att_faces_full.pkl_bb=false_s26/final_image.png'
p1123
S'/Users/mfredrik/data/facematch/imgSqJgan.png'
p1124
sS'../images/att_faces/s6/8.pgm'
p1125
S'/Users/mfredrik/data/facematch/imgbXbZnz.png'
p1126
sS'../images/att_faces/s9/8.pgm'
p1127
S'/Users/mfredrik/data/facematch/imgA7DPEx.png'
p1128
sS'../experiments/iminvert-dae-p5000/full/whitebox/dae_mlp_att_faces_full.pkl_bb=false_s29/final_image.png'
p1129
S'/Users/mfredrik/data/facematch/imgkao6hp.png'
p1130
sS'../images/att_faces/s38/1.pgm'
p1131
S'/Users/mfredrik/data/facematch/imgo4rP_M.png'
p1132
sS'../images/att_faces/s15/7.pgm'
p1133
S'/Users/mfredrik/data/facematch/imgJjyNzk.png'
p1134
sS'../experiments/iminvert-dae-p5000/full/whitebox/dae_mlp_att_faces_full.pkl_bb=false_s12/final_image.png'
p1135
S'/Users/mfredrik/data/facematch/imgIuftwG.png'
p1136
sS'../experiments/iminvert-dae-p1000/whitebox/dae_mlp_att_faces_half.pkl_bb=false_s9/target_img.png'
p1137
S'/Users/mfredrik/data/facematch/imgzInu6y.png'
p1138
sS'../experiments/iminvert-dae-p5000/full/blackbox/dae_mlp_att_faces_full.pkl_bb=true_s12/final_image.png'
p1139
S'/Users/mfredrik/data/facematch/imgwCfCfF.png'
p1140
sS'../experiments/iminvert-dae-p5000/whitebox/dae_mlp_att_faces_half.pkl_bb=false_s31/target_img.png'
p1141
S'/Users/mfredrik/data/facematch/imgn98kpR.png'
p1142
sS'../experiments/softmax-fullrun/softmax_att_faces_half.pkl_bb=false_s21/target_img.png'
p1143
S'/Users/mfredrik/data/facematch/img7AP2hC.png'
p1144
sS'../experiments/softmax-fullrun/whitebox/softmax_att_faces_full.pkl_bb=false_s35/final_image.png'
p1145
S'/Users/mfredrik/data/facematch/img6Y_vwW.png'
p1146
sS'../experiments/iminvert-dae-p5000/whitebox/dae_mlp_att_faces_half.pkl_bb=false_s18/final_image.png'
p1147
S'/Users/mfredrik/data/facematch/imgoOAMK2.png'
p1148
sS'../images/att_faces/s29/7.pgm'
p1149
S'/Users/mfredrik/data/facematch/imguhN7iE.png'
p1150
sS'../experiments/softmax-fullrun/softmax_att_faces_half.pkl_bb=false_s33/final_image.png'
p1151
S'/Users/mfredrik/data/facematch/img2yi1Gg.png'
p1152
sS'../images/att_faces/s6/7.pgm'
p1153
S'/Users/mfredrik/data/facematch/imgGqoqVy.png'
p1154
sS'../images/att_faces/s29/8.pgm'
p1155
S'/Users/mfredrik/data/facematch/imgheKASF.png'
p1156
sS'../images/att_faces/s32/10.pgm'
p1157
S'/Users/mfredrik/data/facematch/imglKuyrC.png'
p1158
sS'../images/att_faces/s36/8.pgm'
p1159
S'/Users/mfredrik/data/facematch/imgmU7Nu6.png'
p1160
sS'../experiments/softmax-fullrun/whitebox/softmax_att_faces_full.pkl_bb=false_s22/final_image.png'
p1161
S'/Users/mfredrik/data/facematch/imgGOXNmo.png'
p1162
sS'../images/att_faces/s33/7.pgm'
p1163
S'/Users/mfredrik/data/facematch/imgnXGsYA.png'
p1164
sS'../experiments/iminvert-dae-p5000/whitebox/dae_mlp_att_faces_half.pkl_bb=false_s35/final_image.png'
p1165
S'/Users/mfredrik/data/facematch/imgwffIx8.png'
p1166
sS'../images/att_faces/s2/7.pgm'
p1167
S'/Users/mfredrik/data/facematch/imgvdUCF8.png'
p1168
sS'../images/att_faces/s24/10.pgm'
p1169
S'/Users/mfredrik/data/facematch/imgXQpBkW.png'
p1170
sS'../experiments/iminvert-dae-p5000/full/blackbox/dae_mlp_att_faces_full.pkl_bb=true_s14/final_image.png'
p1171
S'/Users/mfredrik/data/facematch/imgg2nEZU.png'
p1172
sS'../images/att_faces/s40/2.pgm'
p1173
S'/Users/mfredrik/data/facematch/imgUM1LOy.png'
p1174
sS'../experiments/softmax-fullrun/softmax_att_faces_full.pkl_bb=false_s40/final_image.png'
p1175
S'/Users/mfredrik/data/facematch/img7m2gJH.png'
p1176
sS'../experiments/iminvert-dae-p5000/whitebox/dae_mlp_att_faces_half.pkl_bb=false_s4/final_image.png'
p1177
S'/Users/mfredrik/data/facematch/imgVQ7CWH.png'
p1178
sS'../experiments/softmax-fullrun/whitebox/softmax_att_faces_full.pkl_bb=false_s33/final_image.png'
p1179
S'/Users/mfredrik/data/facematch/imgPkL5pk.png'
p1180
sS'../experiments/iminvert-dae-p5000/full/blackbox/dae_mlp_att_faces_full.pkl_bb=true_s18/final_image.png'
p1181
S'/Users/mfredrik/data/facematch/imgFyQlnT.png'
p1182
sS'../images/att_faces/s5/5.pgm'
p1183
S'/Users/mfredrik/data/facematch/imgUvSTrY.png'
p1184
sS'../experiments/iminvert-dae-p1000/whitebox/dae_mlp_att_faces_half.pkl_bb=false_s7/target_img.png'
p1185
S'/Users/mfredrik/data/facematch/img8BFpip.png'
p1186
sS'../images/att_faces/s18/2.pgm'
p1187
S'/Users/mfredrik/data/facematch/imgR1r02J.png'
p1188
sS'../images/att_faces/s27/10.pgm'
p1189
S'/Users/mfredrik/data/facematch/img_UPnUB.png'
p1190
sS'../experiments/iminvert-dae-p1000/whitebox/dae_mlp_att_faces_half.pkl_bb=false_s27/final_image.png'
p1191
S'/Users/mfredrik/data/facematch/img4dADUQ.png'
p1192
sS'../experiments/softmax-fullrun/whitebox/softmax_att_faces_full.pkl_bb=false_s16/final_image.png'
p1193
S'/Users/mfredrik/data/facematch/imgla45vc.png'
p1194
sS'../images/att_faces/s29/2.pgm'
p1195
S'/Users/mfredrik/data/facematch/img7MQj12.png'
p1196
sS'../experiments/iminvert-dae-p1000/whitebox/dae_mlp_att_faces_half.pkl_bb=false_s18/target_img.png'
p1197
S'/Users/mfredrik/data/facematch/imgHDezL9.png'
p1198
sS'../images/att_faces/s34/4.pgm'
p1199
S'/Users/mfredrik/data/facematch/imgaoLAod.png'
p1200
sS'../images/att_faces/s35/10.pgm'
p1201
S'/Users/mfredrik/data/facematch/imgQi7Wfe.png'
p1202
sS'../experiments/iminvert-dae-p5000/full/blackbox/dae_mlp_att_faces_full.pkl_bb=true_s8/final_image.png'
p1203
S'/Users/mfredrik/data/facematch/imgJNNF2C.png'
p1204
sS'../images/att_faces/s21/9.pgm'
p1205
S'/Users/mfredrik/data/facematch/imgCx4zkL.png'
p1206
sS'../experiments/iminvert-dae-p1000/whitebox/dae_mlp_att_faces_half.pkl_bb=false_s17/final_image.png'
p1207
S'/Users/mfredrik/data/facematch/imgCDhFur.png'
p1208
sS'../images/att_faces/s33/2.pgm'
p1209
S'/Users/mfredrik/data/facematch/img2UXDTv.png'
p1210
sS'../images/att_faces/s8/8.pgm'
p1211
S'/Users/mfredrik/data/facematch/img0o0wDx.png'
p1212
sS'../images/att_faces/s25/9.pgm'
p1213
S'/Users/mfredrik/data/facematch/imgrsYsvn.png'
p1214
sS'../experiments/softmax-fullrun/whitebox/softmax_att_faces_full.pkl_bb=false_s9/final_image.png'
p1215
S'/Users/mfredrik/data/facematch/imgaYxL_t.png'
p1216
sS'../experiments/softmax-fullrun/softmax_att_faces_half.pkl_bb=false_s39/final_image.png'
p1217
S'/Users/mfredrik/data/facematch/imgEgu28A.png'
p1218
sS'../experiments/softmax-fullrun/whitebox/softmax_att_faces_full.pkl_bb=false_s19/target_img.png'
p1219
S'/Users/mfredrik/data/facematch/imgLGpVey.png'
p1220
sS'../images/att_faces/s25/4.pgm'
p1221
S'/Users/mfredrik/data/facematch/imgf0R7hj.png'
p1222
sS'../images/att_faces/s13/6.pgm'
p1223
S'/Users/mfredrik/data/facematch/imgP4H4kh.png'
p1224
sS'../images/att_faces/s19/4.pgm'
p1225
S'/Users/mfredrik/data/facematch/imgnL3WW_.png'
p1226
sS'../images/att_faces/s34/6.pgm'
p1227
S'/Users/mfredrik/data/facematch/imglDg5sB.png'
p1228
sS'../experiments/iminvert-dae-p1000/whitebox/dae_mlp_att_faces_half.pkl_bb=false_s15/final_image.png'
p1229
S'/Users/mfredrik/data/facematch/img2pqIux.png'
p1230
sS'../images/att_faces/s38/9.pgm'
p1231
S'/Users/mfredrik/data/facematch/img8bNht0.png'
p1232
sS'../images/att_faces/s20/5.pgm'
p1233
S'/Users/mfredrik/data/facematch/imgfSk6Vq.png'
p1234
sS'../experiments/iminvert-dae-p5000/full/blackbox/dae_mlp_att_faces_full.pkl_bb=true_s38/final_image.png'
p1235
S'/Users/mfredrik/data/facematch/imgVMrjOj.png'
p1236
sS'../experiments/iminvert-dae-p5000/full/whitebox/dae_mlp_att_faces_full.pkl_bb=false_s31/final_image.png'
p1237
S'/Users/mfredrik/data/facematch/imgy6g0Pi.png'
p1238
sS'../images/att_faces/s26/1.pgm'
p1239
S'/Users/mfredrik/data/facematch/img2ZI_6X.png'
p1240
sS'../experiments/softmax-fullrun/softmax_att_faces_half.pkl_bb=false_s1/target_img.png'
p1241
S'/Users/mfredrik/data/facematch/imgx3f9O4.png'
p1242
sS'../images/att_faces/s19/2.pgm'
p1243
S'/Users/mfredrik/data/facematch/imgJp0_Hc.png'
p1244
sS'../images/att_faces/s29/3.pgm'
p1245
S'/Users/mfredrik/data/facematch/imgBcTbfC.png'
p1246
sS'../images/att_faces/s24/3.pgm'
p1247
S'/Users/mfredrik/data/facematch/imgIT224y.png'
p1248
sS'../images/att_faces/s26/6.pgm'
p1249
S'/Users/mfredrik/data/facematch/imgyh4NaQ.png'
p1250
sS'../experiments/softmax-fullrun/softmax_att_faces_half.pkl_bb=false_s27/final_image.png'
p1251
S'/Users/mfredrik/data/facematch/img9JLbpz.png'
p1252
sS'../experiments/softmax-fullrun/softmax_att_faces_full.pkl_bb=false_s9/target_img.png'
p1253
S'/Users/mfredrik/data/facematch/imgDRON9Q.png'
p1254
sS'../experiments/iminvert-dae-p1000/whitebox/dae_mlp_att_faces_half.pkl_bb=false_s25/final_image.png'
p1255
S'/Users/mfredrik/data/facematch/img8bOr6f.png'
p1256
sS'../experiments/iminvert-dae-p1000/whitebox/dae_mlp_att_faces_half.pkl_bb=false_s20/target_img.png'
p1257
S'/Users/mfredrik/data/facematch/imgjP6LJu.png'
p1258
sS'../experiments/softmax-fullrun/softmax_att_faces_full.pkl_bb=false_s4/final_image.png'
p1259
S'/Users/mfredrik/data/facematch/imgtsrGIM.png'
p1260
sS'../images/att_faces/s40/8.pgm'
p1261
S'/Users/mfredrik/data/facematch/imgE0O3H9.png'
p1262
sS'../experiments/iminvert-dae-p5000/full/blackbox/dae_mlp_att_faces_full.pkl_bb=true_s16/final_image.png'
p1263
S'/Users/mfredrik/data/facematch/imgn_yAu2.png'
p1264
sS'../images/att_faces/s20/8.pgm'
p1265
S'/Users/mfredrik/data/facematch/imgafN_2K.png'
p1266
sS'../experiments/iminvert-dae-p5000/full/blackbox/dae_mlp_att_faces_full.pkl_bb=true_s22/final_image.png'
p1267
S'/Users/mfredrik/data/facematch/imgp2zTeg.png'
p1268
sS'../experiments/softmax-fullrun/softmax_att_faces_full.pkl_bb=false_s25/target_img.png'
p1269
S'/Users/mfredrik/data/facematch/imgmcV1uw.png'
p1270
sS'../images/att_faces/s13/9.pgm'
p1271
S'/Users/mfredrik/data/facematch/imghRRs00.png'
p1272
sS'../images/att_faces/s6/1.pgm'
p1273
S'/Users/mfredrik/data/facematch/img2CewUr.png'
p1274
sS'../images/att_faces/s39/1.pgm'
p1275
S'/Users/mfredrik/data/facematch/imgSZaR_0.png'
p1276
sS'../images/att_faces/s28/6.pgm'
p1277
S'/Users/mfredrik/data/facematch/imgpqp14Y.png'
p1278
sS'../experiments/softmax-fullrun/whitebox/softmax_att_faces_full.pkl_bb=false_s11/final_image.png'
p1279
S'/Users/mfredrik/data/facematch/imgiFmj0Z.png'
p1280
sS'../images/att_faces/s17/7.pgm'
p1281
S'/Users/mfredrik/data/facematch/imgVQP1mJ.png'
p1282
sS'../images/att_faces/s20/2.pgm'
p1283
S'/Users/mfredrik/data/facematch/imgnLZgO_.png'
p1284
sS'../images/att_faces/s22/9.pgm'
p1285
S'/Users/mfredrik/data/facematch/imgocoU0U.png'
p1286
s.